
ak2-projekt.exe:     file format pei-x86-64


Disassembly of section .text:

0000000140001000 <__mingw_invalidParameterHandler>:
   140001000:	c3                   	ret
   140001001:	66 66 2e 0f 1f 84 00 	data16 cs nopw 0x0(%rax,%rax,1)
   140001008:	00 00 00 00 
   14000100c:	0f 1f 40 00          	nopl   0x0(%rax)

0000000140001010 <pre_c_init>:
   140001010:	48 83 ec 28          	sub    $0x28,%rsp
   140001014:	48 8b 05 35 85 00 00 	mov    0x8535(%rip),%rax        # 140009550 <.refptr.__mingw_initltsdrot_force>
   14000101b:	31 c9                	xor    %ecx,%ecx
   14000101d:	c7 00 01 00 00 00    	movl   $0x1,(%rax)
   140001023:	48 8b 05 36 85 00 00 	mov    0x8536(%rip),%rax        # 140009560 <.refptr.__mingw_initltsdyn_force>
   14000102a:	c7 00 01 00 00 00    	movl   $0x1,(%rax)
   140001030:	48 8b 05 39 85 00 00 	mov    0x8539(%rip),%rax        # 140009570 <.refptr.__mingw_initltssuo_force>
   140001037:	c7 00 01 00 00 00    	movl   $0x1,(%rax)
   14000103d:	48 8b 05 8c 84 00 00 	mov    0x848c(%rip),%rax        # 1400094d0 <.refptr.__ImageBase>
   140001044:	66 81 38 4d 5a       	cmpw   $0x5a4d,(%rax)
   140001049:	75 0f                	jne    14000105a <pre_c_init+0x4a>
   14000104b:	48 63 50 3c          	movslq 0x3c(%rax),%rdx
   14000104f:	48 01 d0             	add    %rdx,%rax
   140001052:	81 38 50 45 00 00    	cmpl   $0x4550,(%rax)
   140001058:	74 66                	je     1400010c0 <pre_c_init+0xb0>
   14000105a:	48 8b 05 df 84 00 00 	mov    0x84df(%rip),%rax        # 140009540 <.refptr.__mingw_app_type>
   140001061:	89 0d a5 af 00 00    	mov    %ecx,0xafa5(%rip)        # 14000c00c <managedapp>
   140001067:	8b 00                	mov    (%rax),%eax
   140001069:	85 c0                	test   %eax,%eax
   14000106b:	74 43                	je     1400010b0 <pre_c_init+0xa0>
   14000106d:	b9 02 00 00 00       	mov    $0x2,%ecx
   140001072:	e8 b1 63 00 00       	call   140007428 <__set_app_type>
   140001077:	e8 34 63 00 00       	call   1400073b0 <__p__fmode>
   14000107c:	48 8b 15 8d 85 00 00 	mov    0x858d(%rip),%rdx        # 140009610 <.refptr._fmode>
   140001083:	8b 12                	mov    (%rdx),%edx
   140001085:	89 10                	mov    %edx,(%rax)
   140001087:	e8 34 63 00 00       	call   1400073c0 <__p__commode>
   14000108c:	48 8b 15 5d 85 00 00 	mov    0x855d(%rip),%rdx        # 1400095f0 <.refptr._commode>
   140001093:	8b 12                	mov    (%rdx),%edx
   140001095:	89 10                	mov    %edx,(%rax)
   140001097:	e8 34 53 00 00       	call   1400063d0 <_setargv>
   14000109c:	48 8b 05 8d 83 00 00 	mov    0x838d(%rip),%rax        # 140009430 <.refptr._MINGW_INSTALL_DEBUG_MATHERR>
   1400010a3:	83 38 01             	cmpl   $0x1,(%rax)
   1400010a6:	74 50                	je     1400010f8 <pre_c_init+0xe8>
   1400010a8:	31 c0                	xor    %eax,%eax
   1400010aa:	48 83 c4 28          	add    $0x28,%rsp
   1400010ae:	c3                   	ret
   1400010af:	90                   	nop
   1400010b0:	b9 01 00 00 00       	mov    $0x1,%ecx
   1400010b5:	e8 6e 63 00 00       	call   140007428 <__set_app_type>
   1400010ba:	eb bb                	jmp    140001077 <pre_c_init+0x67>
   1400010bc:	0f 1f 40 00          	nopl   0x0(%rax)
   1400010c0:	0f b7 50 18          	movzwl 0x18(%rax),%edx
   1400010c4:	66 81 fa 0b 01       	cmp    $0x10b,%dx
   1400010c9:	74 45                	je     140001110 <pre_c_init+0x100>
   1400010cb:	66 81 fa 0b 02       	cmp    $0x20b,%dx
   1400010d0:	75 88                	jne    14000105a <pre_c_init+0x4a>
   1400010d2:	83 b8 84 00 00 00 0e 	cmpl   $0xe,0x84(%rax)
   1400010d9:	0f 86 7b ff ff ff    	jbe    14000105a <pre_c_init+0x4a>
   1400010df:	8b 90 f8 00 00 00    	mov    0xf8(%rax),%edx
   1400010e5:	31 c9                	xor    %ecx,%ecx
   1400010e7:	85 d2                	test   %edx,%edx
   1400010e9:	0f 95 c1             	setne  %cl
   1400010ec:	e9 69 ff ff ff       	jmp    14000105a <pre_c_init+0x4a>
   1400010f1:	0f 1f 80 00 00 00 00 	nopl   0x0(%rax)
   1400010f8:	48 8b 0d 31 85 00 00 	mov    0x8531(%rip),%rcx        # 140009630 <.refptr._matherr>
   1400010ff:	e8 3c 5a 00 00       	call   140006b40 <__mingw_setusermatherr>
   140001104:	31 c0                	xor    %eax,%eax
   140001106:	48 83 c4 28          	add    $0x28,%rsp
   14000110a:	c3                   	ret
   14000110b:	0f 1f 44 00 00       	nopl   0x0(%rax,%rax,1)
   140001110:	83 78 74 0e          	cmpl   $0xe,0x74(%rax)
   140001114:	0f 86 40 ff ff ff    	jbe    14000105a <pre_c_init+0x4a>
   14000111a:	44 8b 80 e8 00 00 00 	mov    0xe8(%rax),%r8d
   140001121:	31 c9                	xor    %ecx,%ecx
   140001123:	45 85 c0             	test   %r8d,%r8d
   140001126:	0f 95 c1             	setne  %cl
   140001129:	e9 2c ff ff ff       	jmp    14000105a <pre_c_init+0x4a>
   14000112e:	66 90                	xchg   %ax,%ax

0000000140001130 <pre_cpp_init>:
   140001130:	48 83 ec 38          	sub    $0x38,%rsp
   140001134:	48 8b 05 05 85 00 00 	mov    0x8505(%rip),%rax        # 140009640 <.refptr._newmode>
   14000113b:	4c 8d 05 d6 ae 00 00 	lea    0xaed6(%rip),%r8        # 14000c018 <envp>
   140001142:	48 8d 15 d7 ae 00 00 	lea    0xaed7(%rip),%rdx        # 14000c020 <argv>
   140001149:	48 8d 0d d8 ae 00 00 	lea    0xaed8(%rip),%rcx        # 14000c028 <argc>
   140001150:	8b 00                	mov    (%rax),%eax
   140001152:	89 05 ac ae 00 00    	mov    %eax,0xaeac(%rip)        # 14000c004 <startinfo>
   140001158:	48 8b 05 a1 84 00 00 	mov    0x84a1(%rip),%rax        # 140009600 <.refptr._dowildcard>
   14000115f:	44 8b 08             	mov    (%rax),%r9d
   140001162:	48 8d 05 9b ae 00 00 	lea    0xae9b(%rip),%rax        # 14000c004 <startinfo>
   140001169:	48 89 44 24 20       	mov    %rax,0x20(%rsp)
   14000116e:	e8 a5 62 00 00       	call   140007418 <__getmainargs>
   140001173:	90                   	nop
   140001174:	48 83 c4 38          	add    $0x38,%rsp
   140001178:	c3                   	ret
   140001179:	0f 1f 80 00 00 00 00 	nopl   0x0(%rax)

0000000140001180 <__tmainCRTStartup>:
   140001180:	41 54                	push   %r12
   140001182:	55                   	push   %rbp
   140001183:	57                   	push   %rdi
   140001184:	56                   	push   %rsi
   140001185:	53                   	push   %rbx
   140001186:	48 83 ec 20          	sub    $0x20,%rsp
   14000118a:	48 8b 1d ff 83 00 00 	mov    0x83ff(%rip),%rbx        # 140009590 <.refptr.__native_startup_lock>
   140001191:	48 8b 2d ac c1 00 00 	mov    0xc1ac(%rip),%rbp        # 14000d344 <__imp_Sleep>
   140001198:	31 ff                	xor    %edi,%edi
   14000119a:	65 48 8b 04 25 30 00 	mov    %gs:0x30,%rax
   1400011a1:	00 00 
   1400011a3:	48 8b 70 08          	mov    0x8(%rax),%rsi
   1400011a7:	eb 17                	jmp    1400011c0 <__tmainCRTStartup+0x40>
   1400011a9:	0f 1f 80 00 00 00 00 	nopl   0x0(%rax)
   1400011b0:	48 39 c6             	cmp    %rax,%rsi
   1400011b3:	0f 84 67 01 00 00    	je     140001320 <__tmainCRTStartup+0x1a0>
   1400011b9:	b9 e8 03 00 00       	mov    $0x3e8,%ecx
   1400011be:	ff d5                	call   *%rbp
   1400011c0:	48 89 f8             	mov    %rdi,%rax
   1400011c3:	f0 48 0f b1 33       	lock cmpxchg %rsi,(%rbx)
   1400011c8:	48 85 c0             	test   %rax,%rax
   1400011cb:	75 e3                	jne    1400011b0 <__tmainCRTStartup+0x30>
   1400011cd:	48 8b 35 cc 83 00 00 	mov    0x83cc(%rip),%rsi        # 1400095a0 <.refptr.__native_startup_state>
   1400011d4:	31 ff                	xor    %edi,%edi
   1400011d6:	8b 06                	mov    (%rsi),%eax
   1400011d8:	83 f8 01             	cmp    $0x1,%eax
   1400011db:	0f 84 56 01 00 00    	je     140001337 <__tmainCRTStartup+0x1b7>
   1400011e1:	8b 06                	mov    (%rsi),%eax
   1400011e3:	85 c0                	test   %eax,%eax
   1400011e5:	0f 84 b5 01 00 00    	je     1400013a0 <__tmainCRTStartup+0x220>
   1400011eb:	c7 05 13 ae 00 00 01 	movl   $0x1,0xae13(%rip)        # 14000c008 <has_cctor>
   1400011f2:	00 00 00 
   1400011f5:	8b 06                	mov    (%rsi),%eax
   1400011f7:	83 f8 01             	cmp    $0x1,%eax
   1400011fa:	0f 84 4c 01 00 00    	je     14000134c <__tmainCRTStartup+0x1cc>
   140001200:	85 ff                	test   %edi,%edi
   140001202:	0f 84 65 01 00 00    	je     14000136d <__tmainCRTStartup+0x1ed>
   140001208:	48 8b 05 f1 82 00 00 	mov    0x82f1(%rip),%rax        # 140009500 <.refptr.__dyn_tls_init_callback>
   14000120f:	48 8b 00             	mov    (%rax),%rax
   140001212:	48 85 c0             	test   %rax,%rax
   140001215:	74 0c                	je     140001223 <__tmainCRTStartup+0xa3>
   140001217:	45 31 c0             	xor    %r8d,%r8d
   14000121a:	ba 02 00 00 00       	mov    $0x2,%edx
   14000121f:	31 c9                	xor    %ecx,%ecx
   140001221:	ff d0                	call   *%rax
   140001223:	e8 78 55 00 00       	call   1400067a0 <_pei386_runtime_relocator>
   140001228:	48 8b 0d f1 83 00 00 	mov    0x83f1(%rip),%rcx        # 140009620 <.refptr._gnu_exception_handler>
   14000122f:	ff 15 07 c1 00 00    	call   *0xc107(%rip)        # 14000d33c <__imp_SetUnhandledExceptionFilter>
   140001235:	48 8b 15 44 83 00 00 	mov    0x8344(%rip),%rdx        # 140009580 <.refptr.__mingw_oldexcpt_handler>
   14000123c:	48 8d 0d bd fd ff ff 	lea    -0x243(%rip),%rcx        # 140001000 <__mingw_invalidParameterHandler>
   140001243:	48 89 02             	mov    %rax,(%rdx)
   140001246:	e8 95 61 00 00       	call   1400073e0 <_set_invalid_parameter_handler>
   14000124b:	e8 60 53 00 00       	call   1400065b0 <_fpreset>
   140001250:	8b 1d d2 ad 00 00    	mov    0xadd2(%rip),%ebx        # 14000c028 <argc>
   140001256:	8d 7b 01             	lea    0x1(%rbx),%edi
   140001259:	48 63 ff             	movslq %edi,%rdi
   14000125c:	48 c1 e7 03          	shl    $0x3,%rdi
   140001260:	48 89 f9             	mov    %rdi,%rcx
   140001263:	e8 20 62 00 00       	call   140007488 <malloc>
   140001268:	4c 8b 25 b1 ad 00 00 	mov    0xadb1(%rip),%r12        # 14000c020 <argv>
   14000126f:	48 89 c5             	mov    %rax,%rbp
   140001272:	85 db                	test   %ebx,%ebx
   140001274:	0f 8e 46 01 00 00    	jle    1400013c0 <__tmainCRTStartup+0x240>
   14000127a:	48 83 ef 08          	sub    $0x8,%rdi
   14000127e:	31 db                	xor    %ebx,%ebx
   140001280:	49 8b 0c 1c          	mov    (%r12,%rbx,1),%rcx
   140001284:	e8 17 62 00 00       	call   1400074a0 <strlen>
   140001289:	48 8d 70 01          	lea    0x1(%rax),%rsi
   14000128d:	48 89 f1             	mov    %rsi,%rcx
   140001290:	e8 f3 61 00 00       	call   140007488 <malloc>
   140001295:	49 89 f0             	mov    %rsi,%r8
   140001298:	48 89 44 1d 00       	mov    %rax,0x0(%rbp,%rbx,1)
   14000129d:	49 8b 14 1c          	mov    (%r12,%rbx,1),%rdx
   1400012a1:	48 89 c1             	mov    %rax,%rcx
   1400012a4:	48 83 c3 08          	add    $0x8,%rbx
   1400012a8:	e8 e3 61 00 00       	call   140007490 <memcpy>
   1400012ad:	48 39 df             	cmp    %rbx,%rdi
   1400012b0:	75 ce                	jne    140001280 <__tmainCRTStartup+0x100>
   1400012b2:	48 01 ef             	add    %rbp,%rdi
   1400012b5:	48 c7 07 00 00 00 00 	movq   $0x0,(%rdi)
   1400012bc:	48 89 2d 5d ad 00 00 	mov    %rbp,0xad5d(%rip)        # 14000c020 <argv>
   1400012c3:	e8 e8 50 00 00       	call   1400063b0 <__main>
   1400012c8:	48 8b 05 41 82 00 00 	mov    0x8241(%rip),%rax        # 140009510 <.refptr.__imp___initenv>
   1400012cf:	4c 8b 05 42 ad 00 00 	mov    0xad42(%rip),%r8        # 14000c018 <envp>
   1400012d6:	8b 0d 4c ad 00 00    	mov    0xad4c(%rip),%ecx        # 14000c028 <argc>
   1400012dc:	48 8b 00             	mov    (%rax),%rax
   1400012df:	4c 89 00             	mov    %r8,(%rax)
   1400012e2:	48 8b 15 37 ad 00 00 	mov    0xad37(%rip),%rdx        # 14000c020 <argv>
   1400012e9:	e8 22 68 00 00       	call   140007b10 <main>
   1400012ee:	8b 0d 18 ad 00 00    	mov    0xad18(%rip),%ecx        # 14000c00c <managedapp>
   1400012f4:	89 05 16 ad 00 00    	mov    %eax,0xad16(%rip)        # 14000c010 <mainret>
   1400012fa:	85 c9                	test   %ecx,%ecx
   1400012fc:	0f 84 c6 00 00 00    	je     1400013c8 <__tmainCRTStartup+0x248>
   140001302:	8b 15 00 ad 00 00    	mov    0xad00(%rip),%edx        # 14000c008 <has_cctor>
   140001308:	85 d2                	test   %edx,%edx
   14000130a:	74 74                	je     140001380 <__tmainCRTStartup+0x200>
   14000130c:	48 83 c4 20          	add    $0x20,%rsp
   140001310:	5b                   	pop    %rbx
   140001311:	5e                   	pop    %rsi
   140001312:	5f                   	pop    %rdi
   140001313:	5d                   	pop    %rbp
   140001314:	41 5c                	pop    %r12
   140001316:	c3                   	ret
   140001317:	66 0f 1f 84 00 00 00 	nopw   0x0(%rax,%rax,1)
   14000131e:	00 00 
   140001320:	48 8b 35 79 82 00 00 	mov    0x8279(%rip),%rsi        # 1400095a0 <.refptr.__native_startup_state>
   140001327:	bf 01 00 00 00       	mov    $0x1,%edi
   14000132c:	8b 06                	mov    (%rsi),%eax
   14000132e:	83 f8 01             	cmp    $0x1,%eax
   140001331:	0f 85 aa fe ff ff    	jne    1400011e1 <__tmainCRTStartup+0x61>
   140001337:	b9 1f 00 00 00       	mov    $0x1f,%ecx
   14000133c:	e8 f7 60 00 00       	call   140007438 <_amsg_exit>
   140001341:	8b 06                	mov    (%rsi),%eax
   140001343:	83 f8 01             	cmp    $0x1,%eax
   140001346:	0f 85 b4 fe ff ff    	jne    140001200 <__tmainCRTStartup+0x80>
   14000134c:	48 8b 15 6d 82 00 00 	mov    0x826d(%rip),%rdx        # 1400095c0 <.refptr.__xc_z>
   140001353:	48 8b 0d 56 82 00 00 	mov    0x8256(%rip),%rcx        # 1400095b0 <.refptr.__xc_a>
   14000135a:	e8 e9 60 00 00       	call   140007448 <_initterm>
   14000135f:	c7 06 02 00 00 00    	movl   $0x2,(%rsi)
   140001365:	85 ff                	test   %edi,%edi
   140001367:	0f 85 9b fe ff ff    	jne    140001208 <__tmainCRTStartup+0x88>
   14000136d:	31 c0                	xor    %eax,%eax
   14000136f:	48 87 03             	xchg   %rax,(%rbx)
   140001372:	e9 91 fe ff ff       	jmp    140001208 <__tmainCRTStartup+0x88>
   140001377:	66 0f 1f 84 00 00 00 	nopw   0x0(%rax,%rax,1)
   14000137e:	00 00 
   140001380:	e8 bb 60 00 00       	call   140007440 <_cexit>
   140001385:	8b 05 85 ac 00 00    	mov    0xac85(%rip),%eax        # 14000c010 <mainret>
   14000138b:	48 83 c4 20          	add    $0x20,%rsp
   14000138f:	5b                   	pop    %rbx
   140001390:	5e                   	pop    %rsi
   140001391:	5f                   	pop    %rdi
   140001392:	5d                   	pop    %rbp
   140001393:	41 5c                	pop    %r12
   140001395:	c3                   	ret
   140001396:	66 2e 0f 1f 84 00 00 	cs nopw 0x0(%rax,%rax,1)
   14000139d:	00 00 00 
   1400013a0:	48 8b 15 39 82 00 00 	mov    0x8239(%rip),%rdx        # 1400095e0 <.refptr.__xi_z>
   1400013a7:	48 8b 0d 22 82 00 00 	mov    0x8222(%rip),%rcx        # 1400095d0 <.refptr.__xi_a>
   1400013ae:	c7 06 01 00 00 00    	movl   $0x1,(%rsi)
   1400013b4:	e8 8f 60 00 00       	call   140007448 <_initterm>
   1400013b9:	e9 37 fe ff ff       	jmp    1400011f5 <__tmainCRTStartup+0x75>
   1400013be:	66 90                	xchg   %ax,%ax
   1400013c0:	48 89 c7             	mov    %rax,%rdi
   1400013c3:	e9 ed fe ff ff       	jmp    1400012b5 <__tmainCRTStartup+0x135>
   1400013c8:	89 c1                	mov    %eax,%ecx
   1400013ca:	e8 99 60 00 00       	call   140007468 <exit>
   1400013cf:	90                   	nop

00000001400013d0 <WinMainCRTStartup>:
   1400013d0:	48 83 ec 28          	sub    $0x28,%rsp

00000001400013d4 <.l_startw>:
   1400013d4:	48 8b 05 65 81 00 00 	mov    0x8165(%rip),%rax        # 140009540 <.refptr.__mingw_app_type>
   1400013db:	c7 00 01 00 00 00    	movl   $0x1,(%rax)
   1400013e1:	e8 9a fd ff ff       	call   140001180 <__tmainCRTStartup>
   1400013e6:	90                   	nop

00000001400013e7 <.l_endw>:
   1400013e7:	90                   	nop
   1400013e8:	48 83 c4 28          	add    $0x28,%rsp
   1400013ec:	c3                   	ret
   1400013ed:	0f 1f 00             	nopl   (%rax)

00000001400013f0 <mainCRTStartup>:
   1400013f0:	48 83 ec 28          	sub    $0x28,%rsp

00000001400013f4 <.l_start>:
   1400013f4:	48 8b 05 45 81 00 00 	mov    0x8145(%rip),%rax        # 140009540 <.refptr.__mingw_app_type>
   1400013fb:	c7 00 00 00 00 00    	movl   $0x0,(%rax)
   140001401:	e8 7a fd ff ff       	call   140001180 <__tmainCRTStartup>
   140001406:	90                   	nop

0000000140001407 <.l_end>:
   140001407:	90                   	nop
   140001408:	48 83 c4 28          	add    $0x28,%rsp
   14000140c:	c3                   	ret
   14000140d:	0f 1f 00             	nopl   (%rax)

0000000140001410 <atexit>:
   140001410:	48 83 ec 28          	sub    $0x28,%rsp
   140001414:	e8 37 60 00 00       	call   140007450 <_onexit>
   140001419:	48 83 f8 01          	cmp    $0x1,%rax
   14000141d:	19 c0                	sbb    %eax,%eax
   14000141f:	48 83 c4 28          	add    $0x28,%rsp
   140001423:	c3                   	ret
   140001424:	90                   	nop
   140001425:	90                   	nop
   140001426:	90                   	nop
   140001427:	90                   	nop
   140001428:	90                   	nop
   140001429:	90                   	nop
   14000142a:	90                   	nop
   14000142b:	90                   	nop
   14000142c:	90                   	nop
   14000142d:	90                   	nop
   14000142e:	90                   	nop
   14000142f:	90                   	nop

0000000140001430 <__gcc_register_frame>:
   140001430:	48 8d 0d 09 00 00 00 	lea    0x9(%rip),%rcx        # 140001440 <__gcc_deregister_frame>
   140001437:	e9 d4 ff ff ff       	jmp    140001410 <atexit>
   14000143c:	0f 1f 40 00          	nopl   0x0(%rax)

0000000140001440 <__gcc_deregister_frame>:
   140001440:	c3                   	ret
   140001441:	90                   	nop
   140001442:	90                   	nop
   140001443:	90                   	nop
   140001444:	90                   	nop
   140001445:	90                   	nop
   140001446:	90                   	nop
   140001447:	90                   	nop
   140001448:	90                   	nop
   140001449:	90                   	nop
   14000144a:	90                   	nop
   14000144b:	90                   	nop
   14000144c:	90                   	nop
   14000144d:	90                   	nop
   14000144e:	90                   	nop
   14000144f:	90                   	nop

0000000140001450 <__tcf_0>:
   140001450:	48 8d 0d da ab 00 00 	lea    0xabda(%rip),%rcx        # 14000c031 <_ZStL8__ioinit>
   140001457:	e9 f4 4d 00 00       	jmp    140006250 <_ZNSt8ios_base4InitD1Ev>
   14000145c:	0f 1f 40 00          	nopl   0x0(%rax)

0000000140001460 <_ZN10Arithmetic3stcEv>:
   140001460:	f9                   	stc
   140001461:	c6 05 c8 ab 00 00 01 	movb   $0x1,0xabc8(%rip)        # 14000c030 <_ZN10Arithmetic10carry_flagE>
   140001468:	c3                   	ret
   140001469:	90                   	nop
   14000146a:	66 0f 1f 44 00 00    	nopw   0x0(%rax,%rax,1)

0000000140001470 <_ZN10Arithmetic3clcEv>:
   140001470:	f8                   	clc
   140001471:	c6 05 b8 ab 00 00 00 	movb   $0x0,0xabb8(%rip)        # 14000c030 <_ZN10Arithmetic10carry_flagE>
   140001478:	c3                   	ret
   140001479:	90                   	nop
   14000147a:	66 0f 1f 44 00 00    	nopw   0x0(%rax,%rax,1)

0000000140001480 <_ZN10Arithmetic5carryEv>:
   140001480:	0f b6 05 a9 ab 00 00 	movzbl 0xaba9(%rip),%eax        # 14000c030 <_ZN10Arithmetic10carry_flagE>
   140001487:	c3                   	ret
   140001488:	0f 1f 84 00 00 00 00 	nopl   0x0(%rax,%rax,1)
   14000148f:	00 

0000000140001490 <_ZN10Arithmetic3addE4ByteS0_>:
   140001490:	88 4c 24 08          	mov    %cl,0x8(%rsp)
   140001494:	88 54 24 10          	mov    %dl,0x10(%rsp)
   140001498:	8a 44 24 08          	mov    0x8(%rsp),%al
   14000149c:	02 44 24 10          	add    0x10(%rsp),%al
   1400014a0:	0f 92 05 89 ab 00 00 	setb   0xab89(%rip)        # 14000c030 <_ZN10Arithmetic10carry_flagE>
   1400014a7:	c3                   	ret
   1400014a8:	0f 1f 84 00 00 00 00 	nopl   0x0(%rax,%rax,1)
   1400014af:	00 

00000001400014b0 <_ZN10Arithmetic4addcE4ByteS0_>:
   1400014b0:	0f b6 05 79 ab 00 00 	movzbl 0xab79(%rip),%eax        # 14000c030 <_ZN10Arithmetic10carry_flagE>
   1400014b7:	88 4c 24 08          	mov    %cl,0x8(%rsp)
   1400014bb:	88 54 24 10          	mov    %dl,0x10(%rsp)
   1400014bf:	84 c0                	test   %al,%al
   1400014c1:	74 1d                	je     1400014e0 <_ZN10Arithmetic4addcE4ByteS0_+0x30>
   1400014c3:	f9                   	stc
   1400014c4:	88 05 66 ab 00 00    	mov    %al,0xab66(%rip)        # 14000c030 <_ZN10Arithmetic10carry_flagE>
   1400014ca:	8a 44 24 08          	mov    0x8(%rsp),%al
   1400014ce:	12 44 24 10          	adc    0x10(%rsp),%al
   1400014d2:	0f 92 05 57 ab 00 00 	setb   0xab57(%rip)        # 14000c030 <_ZN10Arithmetic10carry_flagE>
   1400014d9:	c3                   	ret
   1400014da:	66 0f 1f 44 00 00    	nopw   0x0(%rax,%rax,1)
   1400014e0:	f8                   	clc
   1400014e1:	eb e1                	jmp    1400014c4 <_ZN10Arithmetic4addcE4ByteS0_+0x14>
   1400014e3:	90                   	nop
   1400014e4:	66 66 2e 0f 1f 84 00 	data16 cs nopw 0x0(%rax,%rax,1)
   1400014eb:	00 00 00 00 
   1400014ef:	90                   	nop

00000001400014f0 <_ZN10Arithmetic3subE4ByteS0_>:
   1400014f0:	88 4c 24 08          	mov    %cl,0x8(%rsp)
   1400014f4:	88 54 24 10          	mov    %dl,0x10(%rsp)
   1400014f8:	8a 44 24 08          	mov    0x8(%rsp),%al
   1400014fc:	2a 44 24 10          	sub    0x10(%rsp),%al
   140001500:	0f 92 05 29 ab 00 00 	setb   0xab29(%rip)        # 14000c030 <_ZN10Arithmetic10carry_flagE>
   140001507:	c3                   	ret
   140001508:	0f 1f 84 00 00 00 00 	nopl   0x0(%rax,%rax,1)
   14000150f:	00 

0000000140001510 <_ZN10Arithmetic3sbbE4ByteS0_>:
   140001510:	0f b6 05 19 ab 00 00 	movzbl 0xab19(%rip),%eax        # 14000c030 <_ZN10Arithmetic10carry_flagE>
   140001517:	88 4c 24 08          	mov    %cl,0x8(%rsp)
   14000151b:	88 54 24 10          	mov    %dl,0x10(%rsp)
   14000151f:	84 c0                	test   %al,%al
   140001521:	74 1d                	je     140001540 <_ZN10Arithmetic3sbbE4ByteS0_+0x30>
   140001523:	f9                   	stc
   140001524:	88 05 06 ab 00 00    	mov    %al,0xab06(%rip)        # 14000c030 <_ZN10Arithmetic10carry_flagE>
   14000152a:	8a 44 24 08          	mov    0x8(%rsp),%al
   14000152e:	1a 44 24 10          	sbb    0x10(%rsp),%al
   140001532:	0f 92 05 f7 aa 00 00 	setb   0xaaf7(%rip)        # 14000c030 <_ZN10Arithmetic10carry_flagE>
   140001539:	c3                   	ret
   14000153a:	66 0f 1f 44 00 00    	nopw   0x0(%rax,%rax,1)
   140001540:	f8                   	clc
   140001541:	eb e1                	jmp    140001524 <_ZN10Arithmetic3sbbE4ByteS0_+0x14>
   140001543:	90                   	nop
   140001544:	66 66 2e 0f 1f 84 00 	data16 cs nopw 0x0(%rax,%rax,1)
   14000154b:	00 00 00 00 
   14000154f:	90                   	nop

0000000140001550 <_ZN10Arithmetic3mulE4ByteS0_>:
   140001550:	53                   	push   %rbx
   140001551:	48 83 ec 30          	sub    $0x30,%rsp
   140001555:	48 8d 5c 24 2d       	lea    0x2d(%rsp),%rbx
   14000155a:	88 4c 24 40          	mov    %cl,0x40(%rsp)
   14000155e:	88 54 24 48          	mov    %dl,0x48(%rsp)
   140001562:	48 89 d9             	mov    %rbx,%rcx
   140001565:	31 d2                	xor    %edx,%edx
   140001567:	66 c7 44 24 2e 00 00 	movw   $0x0,0x2e(%rsp)
   14000156e:	e8 0d 01 00 00       	call   140001680 <_ZN4ByteC1Ey>
   140001573:	0f b6 44 24 2d       	movzbl 0x2d(%rsp),%eax
   140001578:	31 d2                	xor    %edx,%edx
   14000157a:	48 89 d9             	mov    %rbx,%rcx
   14000157d:	88 44 24 2e          	mov    %al,0x2e(%rsp)
   140001581:	e8 fa 00 00 00       	call   140001680 <_ZN4ByteC1Ey>
   140001586:	0f b6 44 24 2d       	movzbl 0x2d(%rsp),%eax
   14000158b:	88 44 24 2f          	mov    %al,0x2f(%rsp)
   14000158f:	8a 44 24 40          	mov    0x40(%rsp),%al
   140001593:	f6 64 24 48          	mulb   0x48(%rsp)
   140001597:	88 64 24 2f          	mov    %ah,0x2f(%rsp)
   14000159b:	88 44 24 2e          	mov    %al,0x2e(%rsp)
   14000159f:	0f 92 05 8a aa 00 00 	setb   0xaa8a(%rip)        # 14000c030 <_ZN10Arithmetic10carry_flagE>
   1400015a6:	0f b7 44 24 2e       	movzwl 0x2e(%rsp),%eax
   1400015ab:	48 83 c4 30          	add    $0x30,%rsp
   1400015af:	5b                   	pop    %rbx
   1400015b0:	c3                   	ret
   1400015b1:	90                   	nop
   1400015b2:	66 66 2e 0f 1f 84 00 	data16 cs nopw 0x0(%rax,%rax,1)
   1400015b9:	00 00 00 00 
   1400015bd:	0f 1f 00             	nopl   (%rax)

00000001400015c0 <_ZN10Arithmetic3divE4Word4BytePS1_>:
   1400015c0:	55                   	push   %rbp
   1400015c1:	57                   	push   %rdi
   1400015c2:	56                   	push   %rsi
   1400015c3:	53                   	push   %rbx
   1400015c4:	48 83 ec 38          	sub    $0x38,%rsp
   1400015c8:	89 ce                	mov    %ecx,%esi
   1400015ca:	89 d3                	mov    %edx,%ebx
   1400015cc:	4c 89 c7             	mov    %r8,%rdi
   1400015cf:	84 d2                	test   %dl,%dl
   1400015d1:	74 54                	je     140001627 <_ZN10Arithmetic3divE4Word4BytePS1_+0x67>
   1400015d3:	48 8d 6c 24 2d       	lea    0x2d(%rsp),%rbp
   1400015d8:	31 d2                	xor    %edx,%edx
   1400015da:	66 c7 44 24 2e 00 00 	movw   $0x0,0x2e(%rsp)
   1400015e1:	48 89 e9             	mov    %rbp,%rcx
   1400015e4:	e8 97 00 00 00       	call   140001680 <_ZN4ByteC1Ey>
   1400015e9:	0f b6 44 24 2d       	movzbl 0x2d(%rsp),%eax
   1400015ee:	48 89 e9             	mov    %rbp,%rcx
   1400015f1:	31 d2                	xor    %edx,%edx
   1400015f3:	88 44 24 2e          	mov    %al,0x2e(%rsp)
   1400015f7:	e8 84 00 00 00       	call   140001680 <_ZN4ByteC1Ey>
   1400015fc:	0f b6 44 24 2d       	movzbl 0x2d(%rsp),%eax
   140001601:	89 d9                	mov    %ebx,%ecx
   140001603:	88 44 24 2f          	mov    %al,0x2f(%rsp)
   140001607:	89 f0                	mov    %esi,%eax
   140001609:	66 31 d2             	xor    %dx,%dx
   14000160c:	66 f7 f1             	div    %cx
   14000160f:	88 64 24 2f          	mov    %ah,0x2f(%rsp)
   140001613:	88 44 24 2e          	mov    %al,0x2e(%rsp)
   140001617:	88 17                	mov    %dl,(%rdi)
   140001619:	0f b7 44 24 2e       	movzwl 0x2e(%rsp),%eax
   14000161e:	48 83 c4 38          	add    $0x38,%rsp
   140001622:	5b                   	pop    %rbx
   140001623:	5e                   	pop    %rsi
   140001624:	5f                   	pop    %rdi
   140001625:	5d                   	pop    %rbp
   140001626:	c3                   	ret
   140001627:	b9 10 00 00 00       	mov    $0x10,%ecx
   14000162c:	e8 cf 4b 00 00       	call   140006200 <__cxa_allocate_exception>
   140001631:	48 8d 15 c8 79 00 00 	lea    0x79c8(%rip),%rdx        # 140009000 <.rdata>
   140001638:	48 89 c1             	mov    %rax,%rcx
   14000163b:	48 89 c3             	mov    %rax,%rbx
   14000163e:	e8 8d 4c 00 00       	call   1400062d0 <_ZNSt13runtime_errorC1EPKc>
   140001643:	4c 8d 05 7e 4c 00 00 	lea    0x4c7e(%rip),%r8        # 1400062c8 <_ZNSt13runtime_errorD1Ev>
   14000164a:	48 8d 15 1f 80 00 00 	lea    0x801f(%rip),%rdx        # 140009670 <_ZTISt13runtime_error>
   140001651:	48 89 d9             	mov    %rbx,%rcx
   140001654:	e8 7f 4b 00 00       	call   1400061d8 <__cxa_throw>
   140001659:	48 89 c6             	mov    %rax,%rsi
   14000165c:	48 89 d9             	mov    %rbx,%rcx
   14000165f:	e8 84 4b 00 00       	call   1400061e8 <__cxa_free_exception>
   140001664:	48 89 f1             	mov    %rsi,%rcx
   140001667:	e8 f4 5c 00 00       	call   140007360 <_Unwind_Resume>
   14000166c:	90                   	nop
   14000166d:	90                   	nop
   14000166e:	90                   	nop
   14000166f:	90                   	nop

0000000140001670 <__tcf_0>:
   140001670:	48 8d 0d c9 a9 00 00 	lea    0xa9c9(%rip),%rcx        # 14000c040 <_ZStL8__ioinit>
   140001677:	e9 d4 4b 00 00       	jmp    140006250 <_ZNSt8ios_base4InitD1Ev>
   14000167c:	0f 1f 40 00          	nopl   0x0(%rax)

0000000140001680 <_ZN4ByteC1Ey>:
   140001680:	56                   	push   %rsi
   140001681:	53                   	push   %rbx
   140001682:	48 83 ec 28          	sub    $0x28,%rsp
   140001686:	48 81 fa ff 00 00 00 	cmp    $0xff,%rdx
   14000168d:	77 09                	ja     140001698 <_ZN4ByteC1Ey+0x18>
   14000168f:	88 11                	mov    %dl,(%rcx)
   140001691:	48 83 c4 28          	add    $0x28,%rsp
   140001695:	5b                   	pop    %rbx
   140001696:	5e                   	pop    %rsi
   140001697:	c3                   	ret
   140001698:	b9 10 00 00 00       	mov    $0x10,%ecx
   14000169d:	e8 5e 4b 00 00       	call   140006200 <__cxa_allocate_exception>
   1400016a2:	48 8d 15 67 79 00 00 	lea    0x7967(%rip),%rdx        # 140009010 <.rdata>
   1400016a9:	48 89 c1             	mov    %rax,%rcx
   1400016ac:	48 89 c3             	mov    %rax,%rbx
   1400016af:	e8 0c 4c 00 00       	call   1400062c0 <_ZNSt16invalid_argumentC1EPKc>
   1400016b4:	4c 8d 05 fd 4b 00 00 	lea    0x4bfd(%rip),%r8        # 1400062b8 <_ZNSt16invalid_argumentD1Ev>
   1400016bb:	48 8d 15 ce 7f 00 00 	lea    0x7fce(%rip),%rdx        # 140009690 <_ZTISt16invalid_argument>
   1400016c2:	48 89 d9             	mov    %rbx,%rcx
   1400016c5:	e8 0e 4b 00 00       	call   1400061d8 <__cxa_throw>
   1400016ca:	48 89 c6             	mov    %rax,%rsi
   1400016cd:	48 89 d9             	mov    %rbx,%rcx
   1400016d0:	e8 13 4b 00 00       	call   1400061e8 <__cxa_free_exception>
   1400016d5:	48 89 f1             	mov    %rsi,%rcx
   1400016d8:	e8 83 5c 00 00       	call   140007360 <_Unwind_Resume>
   1400016dd:	90                   	nop
   1400016de:	66 90                	xchg   %ax,%ax

00000001400016e0 <_ZN4WordC1Ey>:
   1400016e0:	56                   	push   %rsi
   1400016e1:	53                   	push   %rbx
   1400016e2:	48 83 ec 28          	sub    $0x28,%rsp
   1400016e6:	66 c7 01 00 00       	movw   $0x0,(%rcx)
   1400016eb:	48 81 fa ff ff 00 00 	cmp    $0xffff,%rdx
   1400016f2:	77 0a                	ja     1400016fe <_ZN4WordC1Ey+0x1e>
   1400016f4:	66 89 11             	mov    %dx,(%rcx)
   1400016f7:	48 83 c4 28          	add    $0x28,%rsp
   1400016fb:	5b                   	pop    %rbx
   1400016fc:	5e                   	pop    %rsi
   1400016fd:	c3                   	ret
   1400016fe:	b9 10 00 00 00       	mov    $0x10,%ecx
   140001703:	e8 f8 4a 00 00       	call   140006200 <__cxa_allocate_exception>
   140001708:	48 8d 15 01 79 00 00 	lea    0x7901(%rip),%rdx        # 140009010 <.rdata>
   14000170f:	48 89 c1             	mov    %rax,%rcx
   140001712:	48 89 c3             	mov    %rax,%rbx
   140001715:	e8 a6 4b 00 00       	call   1400062c0 <_ZNSt16invalid_argumentC1EPKc>
   14000171a:	4c 8d 05 97 4b 00 00 	lea    0x4b97(%rip),%r8        # 1400062b8 <_ZNSt16invalid_argumentD1Ev>
   140001721:	48 8d 15 68 7f 00 00 	lea    0x7f68(%rip),%rdx        # 140009690 <_ZTISt16invalid_argument>
   140001728:	48 89 d9             	mov    %rbx,%rcx
   14000172b:	e8 a8 4a 00 00       	call   1400061d8 <__cxa_throw>
   140001730:	48 89 c6             	mov    %rax,%rsi
   140001733:	48 89 d9             	mov    %rbx,%rcx
   140001736:	e8 ad 4a 00 00       	call   1400061e8 <__cxa_free_exception>
   14000173b:	48 89 f1             	mov    %rsi,%rcx
   14000173e:	e8 1d 5c 00 00       	call   140007360 <_Unwind_Resume>
   140001743:	90                   	nop
   140001744:	90                   	nop
   140001745:	90                   	nop
   140001746:	90                   	nop
   140001747:	90                   	nop
   140001748:	90                   	nop
   140001749:	90                   	nop
   14000174a:	90                   	nop
   14000174b:	90                   	nop
   14000174c:	90                   	nop
   14000174d:	90                   	nop
   14000174e:	90                   	nop
   14000174f:	90                   	nop

0000000140001750 <__tcf_0>:
   140001750:	48 8d 0d f9 a8 00 00 	lea    0xa8f9(%rip),%rcx        # 14000c050 <_ZStL8__ioinit>
   140001757:	e9 f4 4a 00 00       	jmp    140006250 <_ZNSt8ios_base4InitD1Ev>
   14000175c:	90                   	nop
   14000175d:	90                   	nop
   14000175e:	90                   	nop
   14000175f:	90                   	nop

0000000140001760 <__tcf_0>:
   140001760:	48 8d 0d f9 a8 00 00 	lea    0xa8f9(%rip),%rcx        # 14000c060 <_ZStL8__ioinit>
   140001767:	e9 e4 4a 00 00       	jmp    140006250 <_ZNSt8ios_base4InitD1Ev>
   14000176c:	0f 1f 40 00          	nopl   0x0(%rax)

0000000140001770 <_ZNSt7__cxx114listI4ByteSaIS1_EEaSERKS3_.part.0>:
   140001770:	41 54                	push   %r12
   140001772:	55                   	push   %rbp
   140001773:	57                   	push   %rdi
   140001774:	56                   	push   %rsi
   140001775:	53                   	push   %rbx
   140001776:	48 83 ec 40          	sub    $0x40,%rsp
   14000177a:	48 8b 32             	mov    (%rdx),%rsi
   14000177d:	48 8b 19             	mov    (%rcx),%rbx
   140001780:	48 89 cf             	mov    %rcx,%rdi
   140001783:	48 89 d5             	mov    %rdx,%rbp
   140001786:	48 39 f2             	cmp    %rsi,%rdx
   140001789:	74 24                	je     1400017af <_ZNSt7__cxx114listI4ByteSaIS1_EEaSERKS3_.part.0+0x3f>
   14000178b:	48 39 cb             	cmp    %rcx,%rbx
   14000178e:	75 0d                	jne    14000179d <_ZNSt7__cxx114listI4ByteSaIS1_EEaSERKS3_.part.0+0x2d>
   140001790:	eb 5e                	jmp    1400017f0 <_ZNSt7__cxx114listI4ByteSaIS1_EEaSERKS3_.part.0+0x80>
   140001792:	66 0f 1f 44 00 00    	nopw   0x0(%rax,%rax,1)
   140001798:	48 39 df             	cmp    %rbx,%rdi
   14000179b:	74 53                	je     1400017f0 <_ZNSt7__cxx114listI4ByteSaIS1_EEaSERKS3_.part.0+0x80>
   14000179d:	0f b6 46 10          	movzbl 0x10(%rsi),%eax
   1400017a1:	48 8b 36             	mov    (%rsi),%rsi
   1400017a4:	88 43 10             	mov    %al,0x10(%rbx)
   1400017a7:	48 8b 1b             	mov    (%rbx),%rbx
   1400017aa:	48 39 f5             	cmp    %rsi,%rbp
   1400017ad:	75 e9                	jne    140001798 <_ZNSt7__cxx114listI4ByteSaIS1_EEaSERKS3_.part.0+0x28>
   1400017af:	48 39 df             	cmp    %rbx,%rdi
   1400017b2:	74 29                	je     1400017dd <_ZNSt7__cxx114listI4ByteSaIS1_EEaSERKS3_.part.0+0x6d>
   1400017b4:	0f 1f 40 00          	nopl   0x0(%rax)
   1400017b8:	48 89 de             	mov    %rbx,%rsi
   1400017bb:	48 8b 1b             	mov    (%rbx),%rbx
   1400017be:	48 83 6f 10 01       	subq   $0x1,0x10(%rdi)
   1400017c3:	48 89 f1             	mov    %rsi,%rcx
   1400017c6:	e8 95 4a 00 00       	call   140006260 <_ZNSt8__detail15_List_node_base9_M_unhookEv>
   1400017cb:	ba 18 00 00 00       	mov    $0x18,%edx
   1400017d0:	48 89 f1             	mov    %rsi,%rcx
   1400017d3:	e8 38 4a 00 00       	call   140006210 <_ZdlPvy>
   1400017d8:	48 39 df             	cmp    %rbx,%rdi
   1400017db:	75 db                	jne    1400017b8 <_ZNSt7__cxx114listI4ByteSaIS1_EEaSERKS3_.part.0+0x48>
   1400017dd:	48 83 c4 40          	add    $0x40,%rsp
   1400017e1:	5b                   	pop    %rbx
   1400017e2:	5e                   	pop    %rsi
   1400017e3:	5f                   	pop    %rdi
   1400017e4:	5d                   	pop    %rbp
   1400017e5:	41 5c                	pop    %r12
   1400017e7:	c3                   	ret
   1400017e8:	0f 1f 84 00 00 00 00 	nopl   0x0(%rax,%rax,1)
   1400017ef:	00 
   1400017f0:	48 39 f5             	cmp    %rsi,%rbp
   1400017f3:	74 ba                	je     1400017af <_ZNSt7__cxx114listI4ByteSaIS1_EEaSERKS3_.part.0+0x3f>
   1400017f5:	48 c7 44 24 30 00 00 	movq   $0x0,0x30(%rsp)
   1400017fc:	00 00 
   1400017fe:	4c 8d 64 24 20       	lea    0x20(%rsp),%r12
   140001803:	66 49 0f 6e c4       	movq   %r12,%xmm0
   140001808:	66 0f 6c c0          	punpcklqdq %xmm0,%xmm0
   14000180c:	0f 11 44 24 20       	movups %xmm0,0x20(%rsp)
   140001811:	b9 18 00 00 00       	mov    $0x18,%ecx
   140001816:	e8 ed 49 00 00       	call   140006208 <_Znwy>
   14000181b:	48 89 c1             	mov    %rax,%rcx
   14000181e:	0f b6 46 10          	movzbl 0x10(%rsi),%eax
   140001822:	4c 89 e2             	mov    %r12,%rdx
   140001825:	88 41 10             	mov    %al,0x10(%rcx)
   140001828:	e8 3b 4a 00 00       	call   140006268 <_ZNSt8__detail15_List_node_base7_M_hookEPS0_>
   14000182d:	48 8b 36             	mov    (%rsi),%rsi
   140001830:	48 83 44 24 30 01    	addq   $0x1,0x30(%rsp)
   140001836:	48 39 f5             	cmp    %rsi,%rbp
   140001839:	75 d6                	jne    140001811 <_ZNSt7__cxx114listI4ByteSaIS1_EEaSERKS3_.part.0+0xa1>
   14000183b:	48 8b 54 24 20       	mov    0x20(%rsp),%rdx
   140001840:	4c 39 e2             	cmp    %r12,%rdx
   140001843:	74 98                	je     1400017dd <_ZNSt7__cxx114listI4ByteSaIS1_EEaSERKS3_.part.0+0x6d>
   140001845:	4d 89 e0             	mov    %r12,%r8
   140001848:	48 89 f9             	mov    %rdi,%rcx
   14000184b:	e8 20 4a 00 00       	call   140006270 <_ZNSt8__detail15_List_node_base11_M_transferEPS0_S1_>
   140001850:	48 8b 5c 24 20       	mov    0x20(%rsp),%rbx
   140001855:	48 8b 44 24 30       	mov    0x30(%rsp),%rax
   14000185a:	48 c7 44 24 30 00 00 	movq   $0x0,0x30(%rsp)
   140001861:	00 00 
   140001863:	48 01 47 10          	add    %rax,0x10(%rdi)
   140001867:	4c 39 e3             	cmp    %r12,%rbx
   14000186a:	0f 84 6d ff ff ff    	je     1400017dd <_ZNSt7__cxx114listI4ByteSaIS1_EEaSERKS3_.part.0+0x6d>
   140001870:	48 89 d9             	mov    %rbx,%rcx
   140001873:	48 8b 1b             	mov    (%rbx),%rbx
   140001876:	ba 18 00 00 00       	mov    $0x18,%edx
   14000187b:	e8 90 49 00 00       	call   140006210 <_ZdlPvy>
   140001880:	4c 39 e3             	cmp    %r12,%rbx
   140001883:	75 eb                	jne    140001870 <_ZNSt7__cxx114listI4ByteSaIS1_EEaSERKS3_.part.0+0x100>
   140001885:	48 83 c4 40          	add    $0x40,%rsp
   140001889:	5b                   	pop    %rbx
   14000188a:	5e                   	pop    %rsi
   14000188b:	5f                   	pop    %rdi
   14000188c:	5d                   	pop    %rbp
   14000188d:	41 5c                	pop    %r12
   14000188f:	c3                   	ret
   140001890:	48 8b 4c 24 20       	mov    0x20(%rsp),%rcx
   140001895:	48 89 c3             	mov    %rax,%rbx
   140001898:	4c 39 e1             	cmp    %r12,%rcx
   14000189b:	74 12                	je     1400018af <_ZNSt7__cxx114listI4ByteSaIS1_EEaSERKS3_.part.0+0x13f>
   14000189d:	48 8b 31             	mov    (%rcx),%rsi
   1400018a0:	ba 18 00 00 00       	mov    $0x18,%edx
   1400018a5:	e8 66 49 00 00       	call   140006210 <_ZdlPvy>
   1400018aa:	48 89 f1             	mov    %rsi,%rcx
   1400018ad:	eb e9                	jmp    140001898 <_ZNSt7__cxx114listI4ByteSaIS1_EEaSERKS3_.part.0+0x128>
   1400018af:	48 89 d9             	mov    %rbx,%rcx
   1400018b2:	e8 a9 5a 00 00       	call   140007360 <_Unwind_Resume>
   1400018b7:	90                   	nop
   1400018b8:	0f 1f 84 00 00 00 00 	nopl   0x0(%rax,%rax,1)
   1400018bf:	00 

00000001400018c0 <_ZN13NaturalBinaryC2Ex.constprop.0>:
   1400018c0:	57                   	push   %rdi
   1400018c1:	56                   	push   %rsi
   1400018c2:	53                   	push   %rbx
   1400018c3:	48 83 ec 30          	sub    $0x30,%rsp
   1400018c7:	31 d2                	xor    %edx,%edx
   1400018c9:	66 48 0f 6e c1       	movq   %rcx,%xmm0
   1400018ce:	48 c7 41 10 00 00 00 	movq   $0x0,0x10(%rcx)
   1400018d5:	00 
   1400018d6:	48 89 cb             	mov    %rcx,%rbx
   1400018d9:	66 0f 6c c0          	punpcklqdq %xmm0,%xmm0
   1400018dd:	0f 11 01             	movups %xmm0,(%rcx)
   1400018e0:	48 8d 4c 24 2f       	lea    0x2f(%rsp),%rcx
   1400018e5:	e8 96 fd ff ff       	call   140001680 <_ZN4ByteC1Ey>
   1400018ea:	b9 18 00 00 00       	mov    $0x18,%ecx
   1400018ef:	e8 14 49 00 00       	call   140006208 <_Znwy>
   1400018f4:	48 89 c1             	mov    %rax,%rcx
   1400018f7:	0f b6 44 24 2f       	movzbl 0x2f(%rsp),%eax
   1400018fc:	48 89 da             	mov    %rbx,%rdx
   1400018ff:	88 41 10             	mov    %al,0x10(%rcx)
   140001902:	e8 61 49 00 00       	call   140006268 <_ZNSt8__detail15_List_node_base7_M_hookEPS0_>
   140001907:	48 83 43 10 01       	addq   $0x1,0x10(%rbx)
   14000190c:	48 83 c4 30          	add    $0x30,%rsp
   140001910:	5b                   	pop    %rbx
   140001911:	5e                   	pop    %rsi
   140001912:	5f                   	pop    %rdi
   140001913:	c3                   	ret
   140001914:	48 8b 0b             	mov    (%rbx),%rcx
   140001917:	48 89 c7             	mov    %rax,%rdi
   14000191a:	48 39 cb             	cmp    %rcx,%rbx
   14000191d:	74 12                	je     140001931 <_ZN13NaturalBinaryC2Ex.constprop.0+0x71>
   14000191f:	48 8b 31             	mov    (%rcx),%rsi
   140001922:	ba 18 00 00 00       	mov    $0x18,%edx
   140001927:	e8 e4 48 00 00       	call   140006210 <_ZdlPvy>
   14000192c:	48 89 f1             	mov    %rsi,%rcx
   14000192f:	eb e9                	jmp    14000191a <_ZN13NaturalBinaryC2Ex.constprop.0+0x5a>
   140001931:	48 89 f9             	mov    %rdi,%rcx
   140001934:	e8 27 5a 00 00       	call   140007360 <_Unwind_Resume>
   140001939:	90                   	nop
   14000193a:	66 0f 1f 44 00 00    	nopw   0x0(%rax,%rax,1)

0000000140001940 <_ZN13NaturalBinaryC1Ev>:
   140001940:	e9 7b ff ff ff       	jmp    1400018c0 <_ZN13NaturalBinaryC2Ex.constprop.0>
   140001945:	90                   	nop
   140001946:	66 2e 0f 1f 84 00 00 	cs nopw 0x0(%rax,%rax,1)
   14000194d:	00 00 00 

0000000140001950 <_ZN13NaturalBinaryC1Ex>:
   140001950:	57                   	push   %rdi
   140001951:	56                   	push   %rsi
   140001952:	53                   	push   %rbx
   140001953:	48 83 ec 30          	sub    $0x30,%rsp
   140001957:	66 48 0f 6e c1       	movq   %rcx,%xmm0
   14000195c:	48 89 ce             	mov    %rcx,%rsi
   14000195f:	48 8d 7c 24 2f       	lea    0x2f(%rsp),%rdi
   140001964:	48 89 d3             	mov    %rdx,%rbx
   140001967:	66 0f 6c c0          	punpcklqdq %xmm0,%xmm0
   14000196b:	48 c7 41 10 00 00 00 	movq   $0x0,0x10(%rcx)
   140001972:	00 
   140001973:	0f 11 01             	movups %xmm0,(%rcx)
   140001976:	48 85 d2             	test   %rdx,%rdx
   140001979:	74 65                	je     1400019e0 <_ZN13NaturalBinaryC1Ex+0x90>
   14000197b:	0f 1f 44 00 00       	nopl   0x0(%rax,%rax,1)
   140001980:	48 89 d8             	mov    %rbx,%rax
   140001983:	48 89 f9             	mov    %rdi,%rcx
   140001986:	48 c1 f8 3f          	sar    $0x3f,%rax
   14000198a:	48 c1 e8 38          	shr    $0x38,%rax
   14000198e:	48 8d 14 03          	lea    (%rbx,%rax,1),%rdx
   140001992:	0f b6 d2             	movzbl %dl,%edx
   140001995:	48 29 c2             	sub    %rax,%rdx
   140001998:	e8 e3 fc ff ff       	call   140001680 <_ZN4ByteC1Ey>
   14000199d:	b9 18 00 00 00       	mov    $0x18,%ecx
   1400019a2:	e8 61 48 00 00       	call   140006208 <_Znwy>
   1400019a7:	48 89 c1             	mov    %rax,%rcx
   1400019aa:	0f b6 44 24 2f       	movzbl 0x2f(%rsp),%eax
   1400019af:	48 89 f2             	mov    %rsi,%rdx
   1400019b2:	88 41 10             	mov    %al,0x10(%rcx)
   1400019b5:	e8 ae 48 00 00       	call   140006268 <_ZNSt8__detail15_List_node_base7_M_hookEPS0_>
   1400019ba:	48 83 46 10 01       	addq   $0x1,0x10(%rsi)
   1400019bf:	48 85 db             	test   %rbx,%rbx
   1400019c2:	48 8d 83 ff 00 00 00 	lea    0xff(%rbx),%rax
   1400019c9:	48 0f 48 d8          	cmovs  %rax,%rbx
   1400019cd:	48 c1 fb 08          	sar    $0x8,%rbx
   1400019d1:	75 ad                	jne    140001980 <_ZN13NaturalBinaryC1Ex+0x30>
   1400019d3:	48 83 c4 30          	add    $0x30,%rsp
   1400019d7:	5b                   	pop    %rbx
   1400019d8:	5e                   	pop    %rsi
   1400019d9:	5f                   	pop    %rdi
   1400019da:	c3                   	ret
   1400019db:	0f 1f 44 00 00       	nopl   0x0(%rax,%rax,1)
   1400019e0:	31 d2                	xor    %edx,%edx
   1400019e2:	48 89 f9             	mov    %rdi,%rcx
   1400019e5:	e8 96 fc ff ff       	call   140001680 <_ZN4ByteC1Ey>
   1400019ea:	b9 18 00 00 00       	mov    $0x18,%ecx
   1400019ef:	e8 14 48 00 00       	call   140006208 <_Znwy>
   1400019f4:	48 89 c1             	mov    %rax,%rcx
   1400019f7:	0f b6 44 24 2f       	movzbl 0x2f(%rsp),%eax
   1400019fc:	48 89 f2             	mov    %rsi,%rdx
   1400019ff:	88 41 10             	mov    %al,0x10(%rcx)
   140001a02:	e8 61 48 00 00       	call   140006268 <_ZNSt8__detail15_List_node_base7_M_hookEPS0_>
   140001a07:	48 83 46 10 01       	addq   $0x1,0x10(%rsi)
   140001a0c:	48 83 c4 30          	add    $0x30,%rsp
   140001a10:	5b                   	pop    %rbx
   140001a11:	5e                   	pop    %rsi
   140001a12:	5f                   	pop    %rdi
   140001a13:	c3                   	ret
   140001a14:	48 8b 0e             	mov    (%rsi),%rcx
   140001a17:	48 89 c3             	mov    %rax,%rbx
   140001a1a:	48 39 ce             	cmp    %rcx,%rsi
   140001a1d:	74 12                	je     140001a31 <_ZN13NaturalBinaryC1Ex+0xe1>
   140001a1f:	48 8b 39             	mov    (%rcx),%rdi
   140001a22:	ba 18 00 00 00       	mov    $0x18,%edx
   140001a27:	e8 e4 47 00 00       	call   140006210 <_ZdlPvy>
   140001a2c:	48 89 f9             	mov    %rdi,%rcx
   140001a2f:	eb e9                	jmp    140001a1a <_ZN13NaturalBinaryC1Ex+0xca>
   140001a31:	48 89 d9             	mov    %rbx,%rcx
   140001a34:	e8 27 59 00 00       	call   140007360 <_Unwind_Resume>
   140001a39:	90                   	nop
   140001a3a:	66 0f 1f 44 00 00    	nopw   0x0(%rax,%rax,1)

0000000140001a40 <_ZN13NaturalBinaryC1ENSt7__cxx114listI4ByteSaIS2_EEE>:
   140001a40:	41 54                	push   %r12
   140001a42:	55                   	push   %rbp
   140001a43:	57                   	push   %rdi
   140001a44:	56                   	push   %rsi
   140001a45:	53                   	push   %rbx
   140001a46:	48 83 ec 20          	sub    $0x20,%rsp
   140001a4a:	66 48 0f 6e c1       	movq   %rcx,%xmm0
   140001a4f:	48 c7 41 10 00 00 00 	movq   $0x0,0x10(%rcx)
   140001a56:	00 
   140001a57:	48 89 ce             	mov    %rcx,%rsi
   140001a5a:	48 89 d7             	mov    %rdx,%rdi
   140001a5d:	66 0f 6c c0          	punpcklqdq %xmm0,%xmm0
   140001a61:	0f 11 01             	movups %xmm0,(%rcx)
   140001a64:	48 8b 1a             	mov    (%rdx),%rbx
   140001a67:	48 39 da             	cmp    %rbx,%rdx
   140001a6a:	74 39                	je     140001aa5 <_ZN13NaturalBinaryC1ENSt7__cxx114listI4ByteSaIS2_EEE+0x65>
   140001a6c:	49 89 cc             	mov    %rcx,%r12
   140001a6f:	eb 0a                	jmp    140001a7b <_ZN13NaturalBinaryC1ENSt7__cxx114listI4ByteSaIS2_EEE+0x3b>
   140001a71:	0f 1f 80 00 00 00 00 	nopl   0x0(%rax)
   140001a78:	4c 8b 26             	mov    (%rsi),%r12
   140001a7b:	b9 18 00 00 00       	mov    $0x18,%ecx
   140001a80:	0f b6 6b 10          	movzbl 0x10(%rbx),%ebp
   140001a84:	e8 7f 47 00 00       	call   140006208 <_Znwy>
   140001a89:	40 88 68 10          	mov    %bpl,0x10(%rax)
   140001a8d:	48 89 c1             	mov    %rax,%rcx
   140001a90:	4c 89 e2             	mov    %r12,%rdx
   140001a93:	e8 d0 47 00 00       	call   140006268 <_ZNSt8__detail15_List_node_base7_M_hookEPS0_>
   140001a98:	48 8b 1b             	mov    (%rbx),%rbx
   140001a9b:	48 83 46 10 01       	addq   $0x1,0x10(%rsi)
   140001aa0:	48 39 df             	cmp    %rbx,%rdi
   140001aa3:	75 d3                	jne    140001a78 <_ZN13NaturalBinaryC1ENSt7__cxx114listI4ByteSaIS2_EEE+0x38>
   140001aa5:	48 83 c4 20          	add    $0x20,%rsp
   140001aa9:	5b                   	pop    %rbx
   140001aaa:	5e                   	pop    %rsi
   140001aab:	5f                   	pop    %rdi
   140001aac:	5d                   	pop    %rbp
   140001aad:	41 5c                	pop    %r12
   140001aaf:	c3                   	ret
   140001ab0:	48 8b 0e             	mov    (%rsi),%rcx
   140001ab3:	48 89 c3             	mov    %rax,%rbx
   140001ab6:	48 39 ce             	cmp    %rcx,%rsi
   140001ab9:	74 12                	je     140001acd <_ZN13NaturalBinaryC1ENSt7__cxx114listI4ByteSaIS2_EEE+0x8d>
   140001abb:	48 8b 39             	mov    (%rcx),%rdi
   140001abe:	ba 18 00 00 00       	mov    $0x18,%edx
   140001ac3:	e8 48 47 00 00       	call   140006210 <_ZdlPvy>
   140001ac8:	48 89 f9             	mov    %rdi,%rcx
   140001acb:	eb e9                	jmp    140001ab6 <_ZN13NaturalBinaryC1ENSt7__cxx114listI4ByteSaIS2_EEE+0x76>
   140001acd:	48 89 d9             	mov    %rbx,%rcx
   140001ad0:	e8 8b 58 00 00       	call   140007360 <_Unwind_Resume>
   140001ad5:	90                   	nop
   140001ad6:	66 2e 0f 1f 84 00 00 	cs nopw 0x0(%rax,%rax,1)
   140001add:	00 00 00 

0000000140001ae0 <_ZN13NaturalBinaryD1Ev>:
   140001ae0:	56                   	push   %rsi
   140001ae1:	53                   	push   %rbx
   140001ae2:	48 83 ec 28          	sub    $0x28,%rsp
   140001ae6:	48 8b 19             	mov    (%rcx),%rbx
   140001ae9:	48 89 ce             	mov    %rcx,%rsi
   140001aec:	48 39 cb             	cmp    %rcx,%rbx
   140001aef:	74 1c                	je     140001b0d <_ZN13NaturalBinaryD1Ev+0x2d>
   140001af1:	0f 1f 80 00 00 00 00 	nopl   0x0(%rax)
   140001af8:	48 89 d9             	mov    %rbx,%rcx
   140001afb:	48 8b 1b             	mov    (%rbx),%rbx
   140001afe:	ba 18 00 00 00       	mov    $0x18,%edx
   140001b03:	e8 08 47 00 00       	call   140006210 <_ZdlPvy>
   140001b08:	48 39 f3             	cmp    %rsi,%rbx
   140001b0b:	75 eb                	jne    140001af8 <_ZN13NaturalBinaryD1Ev+0x18>
   140001b0d:	48 83 c4 28          	add    $0x28,%rsp
   140001b11:	5b                   	pop    %rbx
   140001b12:	5e                   	pop    %rsi
   140001b13:	c3                   	ret
   140001b14:	66 66 2e 0f 1f 84 00 	data16 cs nopw 0x0(%rax,%rax,1)
   140001b1b:	00 00 00 00 
   140001b1f:	90                   	nop

0000000140001b20 <_ZN13NaturalBinaryplES_>:
   140001b20:	41 57                	push   %r15
   140001b22:	41 56                	push   %r14
   140001b24:	41 55                	push   %r13
   140001b26:	41 54                	push   %r12
   140001b28:	55                   	push   %rbp
   140001b29:	57                   	push   %rdi
   140001b2a:	56                   	push   %rsi
   140001b2b:	53                   	push   %rbx
   140001b2c:	48 81 ec 98 00 00 00 	sub    $0x98,%rsp
   140001b33:	0f 11 b4 24 80 00 00 	movups %xmm6,0x80(%rsp)
   140001b3a:	00 
   140001b3b:	49 8b 18             	mov    (%r8),%rbx
   140001b3e:	48 8d 6c 24 20       	lea    0x20(%rsp),%rbp
   140001b43:	48 89 cf             	mov    %rcx,%rdi
   140001b46:	49 89 d4             	mov    %rdx,%r12
   140001b49:	4c 89 c6             	mov    %r8,%rsi
   140001b4c:	48 c7 44 24 30 00 00 	movq   $0x0,0x30(%rsp)
   140001b53:	00 00 
   140001b55:	66 48 0f 6e c5       	movq   %rbp,%xmm0
   140001b5a:	66 0f 6c c0          	punpcklqdq %xmm0,%xmm0
   140001b5e:	0f 11 44 24 20       	movups %xmm0,0x20(%rsp)
   140001b63:	49 39 d8             	cmp    %rbx,%r8
   140001b66:	0f 84 cc 01 00 00    	je     140001d38 <_ZN13NaturalBinaryplES_+0x218>
   140001b6c:	0f 1f 40 00          	nopl   0x0(%rax)
   140001b70:	b9 18 00 00 00       	mov    $0x18,%ecx
   140001b75:	e8 8e 46 00 00       	call   140006208 <_Znwy>
   140001b7a:	48 89 c1             	mov    %rax,%rcx
   140001b7d:	0f b6 43 10          	movzbl 0x10(%rbx),%eax
   140001b81:	48 89 ea             	mov    %rbp,%rdx
   140001b84:	88 41 10             	mov    %al,0x10(%rcx)
   140001b87:	e8 dc 46 00 00       	call   140006268 <_ZNSt8__detail15_List_node_base7_M_hookEPS0_>
   140001b8c:	48 8b 1b             	mov    (%rbx),%rbx
   140001b8f:	48 83 44 24 30 01    	addq   $0x1,0x30(%rsp)
   140001b95:	48 39 de             	cmp    %rbx,%rsi
   140001b98:	75 d6                	jne    140001b70 <_ZN13NaturalBinaryplES_+0x50>
   140001b9a:	4c 8b 6c 24 20       	mov    0x20(%rsp),%r13
   140001b9f:	48 c7 44 24 50 00 00 	movq   $0x0,0x50(%rsp)
   140001ba6:	00 00 
   140001ba8:	4c 8d 7c 24 40       	lea    0x40(%rsp),%r15
   140001bad:	66 49 0f 6e f7       	movq   %r15,%xmm6
   140001bb2:	66 0f 6c f6          	punpcklqdq %xmm6,%xmm6
   140001bb6:	0f 11 74 24 40       	movups %xmm6,0x40(%rsp)
   140001bbb:	e8 b0 f8 ff ff       	call   140001470 <_ZN10Arithmetic3clcEv>
   140001bc0:	49 8b 1c 24          	mov    (%r12),%rbx
   140001bc4:	49 39 dc             	cmp    %rbx,%r12
   140001bc7:	74 47                	je     140001c10 <_ZN13NaturalBinaryplES_+0xf0>
   140001bc9:	0f 1f 80 00 00 00 00 	nopl   0x0(%rax)
   140001bd0:	0f b6 4b 10          	movzbl 0x10(%rbx),%ecx
   140001bd4:	41 0f b6 55 10       	movzbl 0x10(%r13),%edx
   140001bd9:	e8 d2 f8 ff ff       	call   1400014b0 <_ZN10Arithmetic4addcE4ByteS0_>
   140001bde:	b9 18 00 00 00       	mov    $0x18,%ecx
   140001be3:	4c 8b 74 24 40       	mov    0x40(%rsp),%r14
   140001be8:	89 c6                	mov    %eax,%esi
   140001bea:	e8 19 46 00 00       	call   140006208 <_Znwy>
   140001bef:	40 88 70 10          	mov    %sil,0x10(%rax)
   140001bf3:	48 89 c1             	mov    %rax,%rcx
   140001bf6:	4c 89 f2             	mov    %r14,%rdx
   140001bf9:	e8 6a 46 00 00       	call   140006268 <_ZNSt8__detail15_List_node_base7_M_hookEPS0_>
   140001bfe:	48 8b 1b             	mov    (%rbx),%rbx
   140001c01:	48 83 44 24 50 01    	addq   $0x1,0x50(%rsp)
   140001c07:	4d 8b 6d 00          	mov    0x0(%r13),%r13
   140001c0b:	49 39 dc             	cmp    %rbx,%r12
   140001c0e:	75 c0                	jne    140001bd0 <_ZN13NaturalBinaryplES_+0xb0>
   140001c10:	e8 6b f8 ff ff       	call   140001480 <_ZN10Arithmetic5carryEv>
   140001c15:	84 c0                	test   %al,%al
   140001c17:	0f 85 23 01 00 00    	jne    140001d40 <_ZN13NaturalBinaryplES_+0x220>
   140001c1d:	48 8b 44 24 50       	mov    0x50(%rsp),%rax
   140001c22:	f3 0f 6f 4c 24 40    	movdqu 0x40(%rsp),%xmm1
   140001c28:	48 8b 54 24 48       	mov    0x48(%rsp),%rdx
   140001c2d:	48 89 44 24 70       	mov    %rax,0x70(%rsp)
   140001c32:	66 48 0f 7e c8       	movq   %xmm1,%rax
   140001c37:	0f 11 4c 24 60       	movups %xmm1,0x60(%rsp)
   140001c3c:	49 39 c7             	cmp    %rax,%r15
   140001c3f:	0f 84 43 01 00 00    	je     140001d88 <_ZN13NaturalBinaryplES_+0x268>
   140001c45:	48 8d 74 24 60       	lea    0x60(%rsp),%rsi
   140001c4a:	66 48 0f 6e c7       	movq   %rdi,%xmm0
   140001c4f:	48 89 32             	mov    %rsi,(%rdx)
   140001c52:	48 8b 5c 24 60       	mov    0x60(%rsp),%rbx
   140001c57:	66 0f 6c c0          	punpcklqdq %xmm0,%xmm0
   140001c5b:	48 89 73 08          	mov    %rsi,0x8(%rbx)
   140001c5f:	48 c7 44 24 50 00 00 	movq   $0x0,0x50(%rsp)
   140001c66:	00 00 
   140001c68:	48 c7 47 10 00 00 00 	movq   $0x0,0x10(%rdi)
   140001c6f:	00 
   140001c70:	0f 11 74 24 40       	movups %xmm6,0x40(%rsp)
   140001c75:	0f 11 07             	movups %xmm0,(%rdi)
   140001c78:	48 39 f3             	cmp    %rsi,%rbx
   140001c7b:	74 78                	je     140001cf5 <_ZN13NaturalBinaryplES_+0x1d5>
   140001c7d:	49 89 fd             	mov    %rdi,%r13
   140001c80:	eb 09                	jmp    140001c8b <_ZN13NaturalBinaryplES_+0x16b>
   140001c82:	66 0f 1f 44 00 00    	nopw   0x0(%rax,%rax,1)
   140001c88:	4c 8b 2f             	mov    (%rdi),%r13
   140001c8b:	b9 18 00 00 00       	mov    $0x18,%ecx
   140001c90:	44 0f b6 63 10       	movzbl 0x10(%rbx),%r12d
   140001c95:	e8 6e 45 00 00       	call   140006208 <_Znwy>
   140001c9a:	44 88 60 10          	mov    %r12b,0x10(%rax)
   140001c9e:	48 89 c1             	mov    %rax,%rcx
   140001ca1:	4c 89 ea             	mov    %r13,%rdx
   140001ca4:	e8 bf 45 00 00       	call   140006268 <_ZNSt8__detail15_List_node_base7_M_hookEPS0_>
   140001ca9:	48 8b 1b             	mov    (%rbx),%rbx
   140001cac:	48 83 47 10 01       	addq   $0x1,0x10(%rdi)
   140001cb1:	48 39 f3             	cmp    %rsi,%rbx
   140001cb4:	75 d2                	jne    140001c88 <_ZN13NaturalBinaryplES_+0x168>
   140001cb6:	4c 8b 64 24 60       	mov    0x60(%rsp),%r12
   140001cbb:	49 39 dc             	cmp    %rbx,%r12
   140001cbe:	74 16                	je     140001cd6 <_ZN13NaturalBinaryplES_+0x1b6>
   140001cc0:	4c 89 e1             	mov    %r12,%rcx
   140001cc3:	4d 8b 24 24          	mov    (%r12),%r12
   140001cc7:	ba 18 00 00 00       	mov    $0x18,%edx
   140001ccc:	e8 3f 45 00 00       	call   140006210 <_ZdlPvy>
   140001cd1:	49 39 f4             	cmp    %rsi,%r12
   140001cd4:	75 ea                	jne    140001cc0 <_ZN13NaturalBinaryplES_+0x1a0>
   140001cd6:	48 8b 5c 24 40       	mov    0x40(%rsp),%rbx
   140001cdb:	eb 13                	jmp    140001cf0 <_ZN13NaturalBinaryplES_+0x1d0>
   140001cdd:	0f 1f 00             	nopl   (%rax)
   140001ce0:	48 89 d9             	mov    %rbx,%rcx
   140001ce3:	ba 18 00 00 00       	mov    $0x18,%edx
   140001ce8:	48 8b 1b             	mov    (%rbx),%rbx
   140001ceb:	e8 20 45 00 00       	call   140006210 <_ZdlPvy>
   140001cf0:	4c 39 fb             	cmp    %r15,%rbx
   140001cf3:	75 eb                	jne    140001ce0 <_ZN13NaturalBinaryplES_+0x1c0>
   140001cf5:	48 8b 5c 24 20       	mov    0x20(%rsp),%rbx
   140001cfa:	48 39 eb             	cmp    %rbp,%rbx
   140001cfd:	74 16                	je     140001d15 <_ZN13NaturalBinaryplES_+0x1f5>
   140001cff:	90                   	nop
   140001d00:	48 89 d9             	mov    %rbx,%rcx
   140001d03:	48 8b 1b             	mov    (%rbx),%rbx
   140001d06:	ba 18 00 00 00       	mov    $0x18,%edx
   140001d0b:	e8 00 45 00 00       	call   140006210 <_ZdlPvy>
   140001d10:	48 39 eb             	cmp    %rbp,%rbx
   140001d13:	75 eb                	jne    140001d00 <_ZN13NaturalBinaryplES_+0x1e0>
   140001d15:	0f 10 b4 24 80 00 00 	movups 0x80(%rsp),%xmm6
   140001d1c:	00 
   140001d1d:	48 89 f8             	mov    %rdi,%rax
   140001d20:	48 81 c4 98 00 00 00 	add    $0x98,%rsp
   140001d27:	5b                   	pop    %rbx
   140001d28:	5e                   	pop    %rsi
   140001d29:	5f                   	pop    %rdi
   140001d2a:	5d                   	pop    %rbp
   140001d2b:	41 5c                	pop    %r12
   140001d2d:	41 5d                	pop    %r13
   140001d2f:	41 5e                	pop    %r14
   140001d31:	41 5f                	pop    %r15
   140001d33:	c3                   	ret
   140001d34:	0f 1f 40 00          	nopl   0x0(%rax)
   140001d38:	49 89 ed             	mov    %rbp,%r13
   140001d3b:	e9 5f fe ff ff       	jmp    140001b9f <_ZN13NaturalBinaryplES_+0x7f>
   140001d40:	48 8d 4c 24 60       	lea    0x60(%rsp),%rcx
   140001d45:	ba 01 00 00 00       	mov    $0x1,%edx
   140001d4a:	e8 31 f9 ff ff       	call   140001680 <_ZN4ByteC1Ey>
   140001d4f:	b9 18 00 00 00       	mov    $0x18,%ecx
   140001d54:	48 8b 5c 24 40       	mov    0x40(%rsp),%rbx
   140001d59:	e8 aa 44 00 00       	call   140006208 <_Znwy>
   140001d5e:	48 89 c1             	mov    %rax,%rcx
   140001d61:	0f b6 44 24 60       	movzbl 0x60(%rsp),%eax
   140001d66:	48 89 da             	mov    %rbx,%rdx
   140001d69:	88 41 10             	mov    %al,0x10(%rcx)
   140001d6c:	e8 f7 44 00 00       	call   140006268 <_ZNSt8__detail15_List_node_base7_M_hookEPS0_>
   140001d71:	48 8b 44 24 50       	mov    0x50(%rsp),%rax
   140001d76:	48 83 c0 01          	add    $0x1,%rax
   140001d7a:	48 89 44 24 50       	mov    %rax,0x50(%rsp)
   140001d7f:	e9 9e fe ff ff       	jmp    140001c22 <_ZN13NaturalBinaryplES_+0x102>
   140001d84:	0f 1f 40 00          	nopl   0x0(%rax)
   140001d88:	66 48 0f 6e c7       	movq   %rdi,%xmm0
   140001d8d:	48 c7 47 10 00 00 00 	movq   $0x0,0x10(%rdi)
   140001d94:	00 
   140001d95:	66 0f 6c c0          	punpcklqdq %xmm0,%xmm0
   140001d99:	0f 11 07             	movups %xmm0,(%rdi)
   140001d9c:	e9 54 ff ff ff       	jmp    140001cf5 <_ZN13NaturalBinaryplES_+0x1d5>
   140001da1:	48 8b 0f             	mov    (%rdi),%rcx
   140001da4:	48 89 c3             	mov    %rax,%rbx
   140001da7:	48 39 cf             	cmp    %rcx,%rdi
   140001daa:	74 62                	je     140001e0e <_ZN13NaturalBinaryplES_+0x2ee>
   140001dac:	4c 8b 21             	mov    (%rcx),%r12
   140001daf:	ba 18 00 00 00       	mov    $0x18,%edx
   140001db4:	e8 57 44 00 00       	call   140006210 <_ZdlPvy>
   140001db9:	4c 89 e1             	mov    %r12,%rcx
   140001dbc:	eb e9                	jmp    140001da7 <_ZN13NaturalBinaryplES_+0x287>
   140001dbe:	48 89 c3             	mov    %rax,%rbx
   140001dc1:	48 8b 4c 24 40       	mov    0x40(%rsp),%rcx
   140001dc6:	4c 39 f9             	cmp    %r15,%rcx
   140001dc9:	74 31                	je     140001dfc <_ZN13NaturalBinaryplES_+0x2dc>
   140001dcb:	48 8b 31             	mov    (%rcx),%rsi
   140001dce:	ba 18 00 00 00       	mov    $0x18,%edx
   140001dd3:	e8 38 44 00 00       	call   140006210 <_ZdlPvy>
   140001dd8:	48 89 f1             	mov    %rsi,%rcx
   140001ddb:	eb e9                	jmp    140001dc6 <_ZN13NaturalBinaryplES_+0x2a6>
   140001ddd:	48 8b 4c 24 20       	mov    0x20(%rsp),%rcx
   140001de2:	48 89 c3             	mov    %rax,%rbx
   140001de5:	48 39 e9             	cmp    %rbp,%rcx
   140001de8:	74 1c                	je     140001e06 <_ZN13NaturalBinaryplES_+0x2e6>
   140001dea:	48 8b 31             	mov    (%rcx),%rsi
   140001ded:	ba 18 00 00 00       	mov    $0x18,%edx
   140001df2:	e8 19 44 00 00       	call   140006210 <_ZdlPvy>
   140001df7:	48 89 f1             	mov    %rsi,%rcx
   140001dfa:	eb e9                	jmp    140001de5 <_ZN13NaturalBinaryplES_+0x2c5>
   140001dfc:	48 8b 4c 24 20       	mov    0x20(%rsp),%rcx
   140001e01:	48 39 e9             	cmp    %rbp,%rcx
   140001e04:	75 24                	jne    140001e2a <_ZN13NaturalBinaryplES_+0x30a>
   140001e06:	48 89 d9             	mov    %rbx,%rcx
   140001e09:	e8 52 55 00 00       	call   140007360 <_Unwind_Resume>
   140001e0e:	48 8b 4c 24 60       	mov    0x60(%rsp),%rcx
   140001e13:	48 39 f1             	cmp    %rsi,%rcx
   140001e16:	74 a9                	je     140001dc1 <_ZN13NaturalBinaryplES_+0x2a1>
   140001e18:	48 8b 39             	mov    (%rcx),%rdi
   140001e1b:	ba 18 00 00 00       	mov    $0x18,%edx
   140001e20:	e8 eb 43 00 00       	call   140006210 <_ZdlPvy>
   140001e25:	48 89 f9             	mov    %rdi,%rcx
   140001e28:	eb e9                	jmp    140001e13 <_ZN13NaturalBinaryplES_+0x2f3>
   140001e2a:	48 8b 31             	mov    (%rcx),%rsi
   140001e2d:	ba 18 00 00 00       	mov    $0x18,%edx
   140001e32:	e8 d9 43 00 00       	call   140006210 <_ZdlPvy>
   140001e37:	48 89 f1             	mov    %rsi,%rcx
   140001e3a:	eb c5                	jmp    140001e01 <_ZN13NaturalBinaryplES_+0x2e1>
   140001e3c:	0f 1f 40 00          	nopl   0x0(%rax)

0000000140001e40 <_ZN13NaturalBinarymiES_>:
   140001e40:	41 57                	push   %r15
   140001e42:	41 56                	push   %r14
   140001e44:	41 55                	push   %r13
   140001e46:	41 54                	push   %r12
   140001e48:	55                   	push   %rbp
   140001e49:	57                   	push   %rdi
   140001e4a:	56                   	push   %rsi
   140001e4b:	53                   	push   %rbx
   140001e4c:	48 81 ec 98 00 00 00 	sub    $0x98,%rsp
   140001e53:	0f 11 b4 24 80 00 00 	movups %xmm6,0x80(%rsp)
   140001e5a:	00 
   140001e5b:	49 8b 18             	mov    (%r8),%rbx
   140001e5e:	4c 8d 64 24 20       	lea    0x20(%rsp),%r12
   140001e63:	48 89 cd             	mov    %rcx,%rbp
   140001e66:	49 89 d5             	mov    %rdx,%r13
   140001e69:	4c 89 c6             	mov    %r8,%rsi
   140001e6c:	48 c7 44 24 30 00 00 	movq   $0x0,0x30(%rsp)
   140001e73:	00 00 
   140001e75:	66 49 0f 6e c4       	movq   %r12,%xmm0
   140001e7a:	66 0f 6c c0          	punpcklqdq %xmm0,%xmm0
   140001e7e:	0f 11 44 24 20       	movups %xmm0,0x20(%rsp)
   140001e83:	49 39 d8             	cmp    %rbx,%r8
   140001e86:	74 35                	je     140001ebd <_ZN13NaturalBinarymiES_+0x7d>
   140001e88:	0f 1f 84 00 00 00 00 	nopl   0x0(%rax,%rax,1)
   140001e8f:	00 
   140001e90:	b9 18 00 00 00       	mov    $0x18,%ecx
   140001e95:	e8 6e 43 00 00       	call   140006208 <_Znwy>
   140001e9a:	48 89 c1             	mov    %rax,%rcx
   140001e9d:	0f b6 43 10          	movzbl 0x10(%rbx),%eax
   140001ea1:	4c 89 e2             	mov    %r12,%rdx
   140001ea4:	88 41 10             	mov    %al,0x10(%rcx)
   140001ea7:	e8 bc 43 00 00       	call   140006268 <_ZNSt8__detail15_List_node_base7_M_hookEPS0_>
   140001eac:	48 8b 1b             	mov    (%rbx),%rbx
   140001eaf:	48 83 44 24 30 01    	addq   $0x1,0x30(%rsp)
   140001eb5:	48 39 de             	cmp    %rbx,%rsi
   140001eb8:	75 d6                	jne    140001e90 <_ZN13NaturalBinarymiES_+0x50>
   140001eba:	48 8b 1b             	mov    (%rbx),%rbx
   140001ebd:	48 c7 44 24 50 00 00 	movq   $0x0,0x50(%rsp)
   140001ec4:	00 00 
   140001ec6:	4c 8d 7c 24 40       	lea    0x40(%rsp),%r15
   140001ecb:	66 49 0f 6e f7       	movq   %r15,%xmm6
   140001ed0:	66 0f 6c f6          	punpcklqdq %xmm6,%xmm6
   140001ed4:	0f 11 74 24 40       	movups %xmm6,0x40(%rsp)
   140001ed9:	e8 92 f5 ff ff       	call   140001470 <_ZN10Arithmetic3clcEv>
   140001ede:	49 8b 75 00          	mov    0x0(%r13),%rsi
   140001ee2:	49 39 f5             	cmp    %rsi,%r13
   140001ee5:	74 47                	je     140001f2e <_ZN13NaturalBinarymiES_+0xee>
   140001ee7:	66 0f 1f 84 00 00 00 	nopw   0x0(%rax,%rax,1)
   140001eee:	00 00 
   140001ef0:	0f b6 4e 10          	movzbl 0x10(%rsi),%ecx
   140001ef4:	0f b6 53 10          	movzbl 0x10(%rbx),%edx
   140001ef8:	e8 13 f6 ff ff       	call   140001510 <_ZN10Arithmetic3sbbE4ByteS0_>
   140001efd:	b9 18 00 00 00       	mov    $0x18,%ecx
   140001f02:	4c 8b 74 24 40       	mov    0x40(%rsp),%r14
   140001f07:	89 c7                	mov    %eax,%edi
   140001f09:	e8 fa 42 00 00       	call   140006208 <_Znwy>
   140001f0e:	40 88 78 10          	mov    %dil,0x10(%rax)
   140001f12:	48 89 c1             	mov    %rax,%rcx
   140001f15:	4c 89 f2             	mov    %r14,%rdx
   140001f18:	e8 4b 43 00 00       	call   140006268 <_ZNSt8__detail15_List_node_base7_M_hookEPS0_>
   140001f1d:	48 8b 36             	mov    (%rsi),%rsi
   140001f20:	48 83 44 24 50 01    	addq   $0x1,0x50(%rsp)
   140001f26:	48 8b 1b             	mov    (%rbx),%rbx
   140001f29:	49 39 f5             	cmp    %rsi,%r13
   140001f2c:	75 c2                	jne    140001ef0 <_ZN13NaturalBinarymiES_+0xb0>
   140001f2e:	e8 4d f5 ff ff       	call   140001480 <_ZN10Arithmetic5carryEv>
   140001f33:	84 c0                	test   %al,%al
   140001f35:	0f 85 1d 01 00 00    	jne    140002058 <_ZN13NaturalBinarymiES_+0x218>
   140001f3b:	48 8b 44 24 50       	mov    0x50(%rsp),%rax
   140001f40:	f3 0f 6f 4c 24 40    	movdqu 0x40(%rsp),%xmm1
   140001f46:	48 8b 54 24 48       	mov    0x48(%rsp),%rdx
   140001f4b:	48 89 44 24 70       	mov    %rax,0x70(%rsp)
   140001f50:	66 48 0f 7e c8       	movq   %xmm1,%rax
   140001f55:	0f 11 4c 24 60       	movups %xmm1,0x60(%rsp)
   140001f5a:	49 39 c7             	cmp    %rax,%r15
   140001f5d:	0f 84 3d 01 00 00    	je     1400020a0 <_ZN13NaturalBinarymiES_+0x260>
   140001f63:	48 8d 74 24 60       	lea    0x60(%rsp),%rsi
   140001f68:	66 48 0f 6e c5       	movq   %rbp,%xmm0
   140001f6d:	48 89 32             	mov    %rsi,(%rdx)
   140001f70:	48 8b 5c 24 60       	mov    0x60(%rsp),%rbx
   140001f75:	66 0f 6c c0          	punpcklqdq %xmm0,%xmm0
   140001f79:	48 89 73 08          	mov    %rsi,0x8(%rbx)
   140001f7d:	48 c7 44 24 50 00 00 	movq   $0x0,0x50(%rsp)
   140001f84:	00 00 
   140001f86:	48 c7 45 10 00 00 00 	movq   $0x0,0x10(%rbp)
   140001f8d:	00 
   140001f8e:	0f 11 74 24 40       	movups %xmm6,0x40(%rsp)
   140001f93:	0f 11 45 00          	movups %xmm0,0x0(%rbp)
   140001f97:	48 39 f3             	cmp    %rsi,%rbx
   140001f9a:	74 79                	je     140002015 <_ZN13NaturalBinarymiES_+0x1d5>
   140001f9c:	49 89 ed             	mov    %rbp,%r13
   140001f9f:	eb 0b                	jmp    140001fac <_ZN13NaturalBinarymiES_+0x16c>
   140001fa1:	0f 1f 80 00 00 00 00 	nopl   0x0(%rax)
   140001fa8:	4c 8b 6d 00          	mov    0x0(%rbp),%r13
   140001fac:	b9 18 00 00 00       	mov    $0x18,%ecx
   140001fb1:	0f b6 7b 10          	movzbl 0x10(%rbx),%edi
   140001fb5:	e8 4e 42 00 00       	call   140006208 <_Znwy>
   140001fba:	40 88 78 10          	mov    %dil,0x10(%rax)
   140001fbe:	48 89 c1             	mov    %rax,%rcx
   140001fc1:	4c 89 ea             	mov    %r13,%rdx
   140001fc4:	e8 9f 42 00 00       	call   140006268 <_ZNSt8__detail15_List_node_base7_M_hookEPS0_>
   140001fc9:	48 8b 1b             	mov    (%rbx),%rbx
   140001fcc:	48 83 45 10 01       	addq   $0x1,0x10(%rbp)
   140001fd1:	48 39 f3             	cmp    %rsi,%rbx
   140001fd4:	75 d2                	jne    140001fa8 <_ZN13NaturalBinarymiES_+0x168>
   140001fd6:	48 8b 7c 24 60       	mov    0x60(%rsp),%rdi
   140001fdb:	48 39 df             	cmp    %rbx,%rdi
   140001fde:	74 15                	je     140001ff5 <_ZN13NaturalBinarymiES_+0x1b5>
   140001fe0:	48 89 f9             	mov    %rdi,%rcx
   140001fe3:	48 8b 3f             	mov    (%rdi),%rdi
   140001fe6:	ba 18 00 00 00       	mov    $0x18,%edx
   140001feb:	e8 20 42 00 00       	call   140006210 <_ZdlPvy>
   140001ff0:	48 39 f7             	cmp    %rsi,%rdi
   140001ff3:	75 eb                	jne    140001fe0 <_ZN13NaturalBinarymiES_+0x1a0>
   140001ff5:	48 8b 5c 24 40       	mov    0x40(%rsp),%rbx
   140001ffa:	eb 14                	jmp    140002010 <_ZN13NaturalBinarymiES_+0x1d0>
   140001ffc:	0f 1f 40 00          	nopl   0x0(%rax)
   140002000:	48 89 d9             	mov    %rbx,%rcx
   140002003:	ba 18 00 00 00       	mov    $0x18,%edx
   140002008:	48 8b 1b             	mov    (%rbx),%rbx
   14000200b:	e8 00 42 00 00       	call   140006210 <_ZdlPvy>
   140002010:	4c 39 fb             	cmp    %r15,%rbx
   140002013:	75 eb                	jne    140002000 <_ZN13NaturalBinarymiES_+0x1c0>
   140002015:	48 8b 5c 24 20       	mov    0x20(%rsp),%rbx
   14000201a:	4c 39 e3             	cmp    %r12,%rbx
   14000201d:	74 16                	je     140002035 <_ZN13NaturalBinarymiES_+0x1f5>
   14000201f:	90                   	nop
   140002020:	48 89 d9             	mov    %rbx,%rcx
   140002023:	48 8b 1b             	mov    (%rbx),%rbx
   140002026:	ba 18 00 00 00       	mov    $0x18,%edx
   14000202b:	e8 e0 41 00 00       	call   140006210 <_ZdlPvy>
   140002030:	4c 39 e3             	cmp    %r12,%rbx
   140002033:	75 eb                	jne    140002020 <_ZN13NaturalBinarymiES_+0x1e0>
   140002035:	0f 10 b4 24 80 00 00 	movups 0x80(%rsp),%xmm6
   14000203c:	00 
   14000203d:	48 89 e8             	mov    %rbp,%rax
   140002040:	48 81 c4 98 00 00 00 	add    $0x98,%rsp
   140002047:	5b                   	pop    %rbx
   140002048:	5e                   	pop    %rsi
   140002049:	5f                   	pop    %rdi
   14000204a:	5d                   	pop    %rbp
   14000204b:	41 5c                	pop    %r12
   14000204d:	41 5d                	pop    %r13
   14000204f:	41 5e                	pop    %r14
   140002051:	41 5f                	pop    %r15
   140002053:	c3                   	ret
   140002054:	0f 1f 40 00          	nopl   0x0(%rax)
   140002058:	48 8d 4c 24 60       	lea    0x60(%rsp),%rcx
   14000205d:	ba 01 00 00 00       	mov    $0x1,%edx
   140002062:	e8 19 f6 ff ff       	call   140001680 <_ZN4ByteC1Ey>
   140002067:	b9 18 00 00 00       	mov    $0x18,%ecx
   14000206c:	48 8b 5c 24 40       	mov    0x40(%rsp),%rbx
   140002071:	e8 92 41 00 00       	call   140006208 <_Znwy>
   140002076:	48 89 c1             	mov    %rax,%rcx
   140002079:	0f b6 44 24 60       	movzbl 0x60(%rsp),%eax
   14000207e:	48 89 da             	mov    %rbx,%rdx
   140002081:	88 41 10             	mov    %al,0x10(%rcx)
   140002084:	e8 df 41 00 00       	call   140006268 <_ZNSt8__detail15_List_node_base7_M_hookEPS0_>
   140002089:	48 8b 44 24 50       	mov    0x50(%rsp),%rax
   14000208e:	48 83 c0 01          	add    $0x1,%rax
   140002092:	48 89 44 24 50       	mov    %rax,0x50(%rsp)
   140002097:	e9 a4 fe ff ff       	jmp    140001f40 <_ZN13NaturalBinarymiES_+0x100>
   14000209c:	0f 1f 40 00          	nopl   0x0(%rax)
   1400020a0:	66 48 0f 6e c5       	movq   %rbp,%xmm0
   1400020a5:	48 c7 45 10 00 00 00 	movq   $0x0,0x10(%rbp)
   1400020ac:	00 
   1400020ad:	66 0f 6c c0          	punpcklqdq %xmm0,%xmm0
   1400020b1:	0f 11 45 00          	movups %xmm0,0x0(%rbp)
   1400020b5:	e9 5b ff ff ff       	jmp    140002015 <_ZN13NaturalBinarymiES_+0x1d5>
   1400020ba:	48 8b 4d 00          	mov    0x0(%rbp),%rcx
   1400020be:	48 89 c3             	mov    %rax,%rbx
   1400020c1:	48 39 cd             	cmp    %rcx,%rbp
   1400020c4:	74 62                	je     140002128 <_ZN13NaturalBinarymiES_+0x2e8>
   1400020c6:	48 8b 39             	mov    (%rcx),%rdi
   1400020c9:	ba 18 00 00 00       	mov    $0x18,%edx
   1400020ce:	e8 3d 41 00 00       	call   140006210 <_ZdlPvy>
   1400020d3:	48 89 f9             	mov    %rdi,%rcx
   1400020d6:	eb e9                	jmp    1400020c1 <_ZN13NaturalBinarymiES_+0x281>
   1400020d8:	48 8b 4c 24 20       	mov    0x20(%rsp),%rcx
   1400020dd:	48 89 c3             	mov    %rax,%rbx
   1400020e0:	4c 39 e1             	cmp    %r12,%rcx
   1400020e3:	74 3b                	je     140002120 <_ZN13NaturalBinarymiES_+0x2e0>
   1400020e5:	48 8b 31             	mov    (%rcx),%rsi
   1400020e8:	ba 18 00 00 00       	mov    $0x18,%edx
   1400020ed:	e8 1e 41 00 00       	call   140006210 <_ZdlPvy>
   1400020f2:	48 89 f1             	mov    %rsi,%rcx
   1400020f5:	eb e9                	jmp    1400020e0 <_ZN13NaturalBinarymiES_+0x2a0>
   1400020f7:	48 89 c3             	mov    %rax,%rbx
   1400020fa:	48 8b 4c 24 40       	mov    0x40(%rsp),%rcx
   1400020ff:	4c 39 f9             	cmp    %r15,%rcx
   140002102:	74 12                	je     140002116 <_ZN13NaturalBinarymiES_+0x2d6>
   140002104:	48 8b 31             	mov    (%rcx),%rsi
   140002107:	ba 18 00 00 00       	mov    $0x18,%edx
   14000210c:	e8 ff 40 00 00       	call   140006210 <_ZdlPvy>
   140002111:	48 89 f1             	mov    %rsi,%rcx
   140002114:	eb e9                	jmp    1400020ff <_ZN13NaturalBinarymiES_+0x2bf>
   140002116:	48 8b 4c 24 20       	mov    0x20(%rsp),%rcx
   14000211b:	4c 39 e1             	cmp    %r12,%rcx
   14000211e:	75 24                	jne    140002144 <_ZN13NaturalBinarymiES_+0x304>
   140002120:	48 89 d9             	mov    %rbx,%rcx
   140002123:	e8 38 52 00 00       	call   140007360 <_Unwind_Resume>
   140002128:	48 8b 4c 24 60       	mov    0x60(%rsp),%rcx
   14000212d:	48 39 f1             	cmp    %rsi,%rcx
   140002130:	74 c8                	je     1400020fa <_ZN13NaturalBinarymiES_+0x2ba>
   140002132:	48 8b 39             	mov    (%rcx),%rdi
   140002135:	ba 18 00 00 00       	mov    $0x18,%edx
   14000213a:	e8 d1 40 00 00       	call   140006210 <_ZdlPvy>
   14000213f:	48 89 f9             	mov    %rdi,%rcx
   140002142:	eb e9                	jmp    14000212d <_ZN13NaturalBinarymiES_+0x2ed>
   140002144:	48 8b 31             	mov    (%rcx),%rsi
   140002147:	ba 18 00 00 00       	mov    $0x18,%edx
   14000214c:	e8 bf 40 00 00       	call   140006210 <_ZdlPvy>
   140002151:	48 89 f1             	mov    %rsi,%rcx
   140002154:	eb c5                	jmp    14000211b <_ZN13NaturalBinarymiES_+0x2db>
   140002156:	66 2e 0f 1f 84 00 00 	cs nopw 0x0(%rax,%rax,1)
   14000215d:	00 00 00 

0000000140002160 <_ZN13NaturalBinary14divide_by_byteES_4BytePS_>:
   140002160:	41 57                	push   %r15
   140002162:	41 56                	push   %r14
   140002164:	41 55                	push   %r13
   140002166:	41 54                	push   %r12
   140002168:	55                   	push   %rbp
   140002169:	57                   	push   %rdi
   14000216a:	56                   	push   %rsi
   14000216b:	53                   	push   %rbx
   14000216c:	48 81 ec 88 00 00 00 	sub    $0x88,%rsp
   140002173:	0f 11 74 24 70       	movups %xmm6,0x70(%rsp)
   140002178:	48 8b 5a 08          	mov    0x8(%rdx),%rbx
   14000217c:	0f b6 43 10          	movzbl 0x10(%rbx),%eax
   140002180:	4c 8d 64 24 30       	lea    0x30(%rsp),%r12
   140002185:	48 89 cf             	mov    %rcx,%rdi
   140002188:	48 89 d5             	mov    %rdx,%rbp
   14000218b:	45 89 c5             	mov    %r8d,%r13d
   14000218e:	66 49 0f 6e f4       	movq   %r12,%xmm6
   140002193:	4d 89 cf             	mov    %r9,%r15
   140002196:	66 0f 6c f6          	punpcklqdq %xmm6,%xmm6
   14000219a:	44 38 c0             	cmp    %r8b,%al
   14000219d:	0f 83 e5 01 00 00    	jae    140002388 <_ZN13NaturalBinary14divide_by_byteES_4BytePS_+0x228>
   1400021a3:	48 83 7a 10 01       	cmpq   $0x1,0x10(%rdx)
   1400021a8:	0f 84 da 01 00 00    	je     140002388 <_ZN13NaturalBinary14divide_by_byteES_4BytePS_+0x228>
   1400021ae:	48 8b 53 08          	mov    0x8(%rbx),%rdx
   1400021b2:	c1 e0 08             	shl    $0x8,%eax
   1400021b5:	48 8d 4c 24 2e       	lea    0x2e(%rsp),%rcx
   1400021ba:	4c 8d 74 24 2d       	lea    0x2d(%rsp),%r14
   1400021bf:	48 8d 74 24 50       	lea    0x50(%rsp),%rsi
   1400021c4:	0f b6 52 10          	movzbl 0x10(%rdx),%edx
   1400021c8:	01 c2                	add    %eax,%edx
   1400021ca:	48 63 d2             	movslq %edx,%rdx
   1400021cd:	e8 0e f5 ff ff       	call   1400016e0 <_ZN4WordC1Ey>
   1400021d2:	c6 44 24 2d 00       	movb   $0x0,0x2d(%rsp)
   1400021d7:	48 c7 44 24 40 00 00 	movq   $0x0,0x40(%rsp)
   1400021de:	00 00 
   1400021e0:	0f 11 74 24 30       	movups %xmm6,0x30(%rsp)
   1400021e5:	0f 1f 00             	nopl   (%rax)
   1400021e8:	0f b7 4c 24 2e       	movzwl 0x2e(%rsp),%ecx
   1400021ed:	4d 89 f0             	mov    %r14,%r8
   1400021f0:	44 89 ea             	mov    %r13d,%edx
   1400021f3:	e8 c8 f3 ff ff       	call   1400015c0 <_ZN10Arithmetic3divE4Word4BytePS1_>
   1400021f8:	0f b7 d0             	movzwl %ax,%edx
   1400021fb:	48 89 f1             	mov    %rsi,%rcx
   1400021fe:	e8 7d f4 ff ff       	call   140001680 <_ZN4ByteC1Ey>
   140002203:	b9 18 00 00 00       	mov    $0x18,%ecx
   140002208:	e8 fb 3f 00 00       	call   140006208 <_Znwy>
   14000220d:	48 89 c1             	mov    %rax,%rcx
   140002210:	0f b6 44 24 50       	movzbl 0x50(%rsp),%eax
   140002215:	4c 89 e2             	mov    %r12,%rdx
   140002218:	88 41 10             	mov    %al,0x10(%rcx)
   14000221b:	e8 48 40 00 00       	call   140006268 <_ZNSt8__detail15_List_node_base7_M_hookEPS0_>
   140002220:	48 8b 5b 08          	mov    0x8(%rbx),%rbx
   140002224:	0f b6 54 24 2d       	movzbl 0x2d(%rsp),%edx
   140002229:	48 89 f1             	mov    %rsi,%rcx
   14000222c:	48 83 44 24 40 01    	addq   $0x1,0x40(%rsp)
   140002232:	48 8b 43 08          	mov    0x8(%rbx),%rax
   140002236:	c1 e2 08             	shl    $0x8,%edx
   140002239:	0f b6 40 10          	movzbl 0x10(%rax),%eax
   14000223d:	01 c2                	add    %eax,%edx
   14000223f:	48 63 d2             	movslq %edx,%rdx
   140002242:	e8 99 f4 ff ff       	call   1400016e0 <_ZN4WordC1Ey>
   140002247:	0f b7 44 24 50       	movzwl 0x50(%rsp),%eax
   14000224c:	66 89 44 24 2e       	mov    %ax,0x2e(%rsp)
   140002251:	48 3b 5d 00          	cmp    0x0(%rbp),%rbx
   140002255:	75 91                	jne    1400021e8 <_ZN13NaturalBinary14divide_by_byteES_4BytePS_+0x88>
   140002257:	4d 85 ff             	test   %r15,%r15
   14000225a:	74 39                	je     140002295 <_ZN13NaturalBinary14divide_by_byteES_4BytePS_+0x135>
   14000225c:	0f b6 54 24 2d       	movzbl 0x2d(%rsp),%edx
   140002261:	48 89 f1             	mov    %rsi,%rcx
   140002264:	e8 e7 f6 ff ff       	call   140001950 <_ZN13NaturalBinaryC1Ex>
   140002269:	48 89 f2             	mov    %rsi,%rdx
   14000226c:	4c 89 f9             	mov    %r15,%rcx
   14000226f:	e8 fc f4 ff ff       	call   140001770 <_ZNSt7__cxx114listI4ByteSaIS1_EEaSERKS3_.part.0>
   140002274:	48 8b 5c 24 50       	mov    0x50(%rsp),%rbx
   140002279:	48 39 f3             	cmp    %rsi,%rbx
   14000227c:	74 17                	je     140002295 <_ZN13NaturalBinary14divide_by_byteES_4BytePS_+0x135>
   14000227e:	66 90                	xchg   %ax,%ax
   140002280:	48 89 d9             	mov    %rbx,%rcx
   140002283:	48 8b 1b             	mov    (%rbx),%rbx
   140002286:	ba 18 00 00 00       	mov    $0x18,%edx
   14000228b:	e8 80 3f 00 00       	call   140006210 <_ZdlPvy>
   140002290:	48 39 f3             	cmp    %rsi,%rbx
   140002293:	75 eb                	jne    140002280 <_ZN13NaturalBinary14divide_by_byteES_4BytePS_+0x120>
   140002295:	f3 0f 6f 4c 24 30    	movdqu 0x30(%rsp),%xmm1
   14000229b:	48 8b 44 24 40       	mov    0x40(%rsp),%rax
   1400022a0:	48 8b 54 24 38       	mov    0x38(%rsp),%rdx
   1400022a5:	48 89 44 24 60       	mov    %rax,0x60(%rsp)
   1400022aa:	66 48 0f 7e c8       	movq   %xmm1,%rax
   1400022af:	0f 11 4c 24 50       	movups %xmm1,0x50(%rsp)
   1400022b4:	49 39 c4             	cmp    %rax,%r12
   1400022b7:	0f 84 0b 01 00 00    	je     1400023c8 <_ZN13NaturalBinary14divide_by_byteES_4BytePS_+0x268>
   1400022bd:	48 89 32             	mov    %rsi,(%rdx)
   1400022c0:	66 48 0f 6e c7       	movq   %rdi,%xmm0
   1400022c5:	48 8b 5c 24 50       	mov    0x50(%rsp),%rbx
   1400022ca:	66 0f 6c c0          	punpcklqdq %xmm0,%xmm0
   1400022ce:	48 89 73 08          	mov    %rsi,0x8(%rbx)
   1400022d2:	48 c7 44 24 40 00 00 	movq   $0x0,0x40(%rsp)
   1400022d9:	00 00 
   1400022db:	48 c7 47 10 00 00 00 	movq   $0x0,0x10(%rdi)
   1400022e2:	00 
   1400022e3:	0f 11 74 24 30       	movups %xmm6,0x30(%rsp)
   1400022e8:	0f 11 07             	movups %xmm0,(%rdi)
   1400022eb:	48 39 f3             	cmp    %rsi,%rbx
   1400022ee:	74 75                	je     140002365 <_ZN13NaturalBinary14divide_by_byteES_4BytePS_+0x205>
   1400022f0:	48 89 fd             	mov    %rdi,%rbp
   1400022f3:	eb 06                	jmp    1400022fb <_ZN13NaturalBinary14divide_by_byteES_4BytePS_+0x19b>
   1400022f5:	0f 1f 00             	nopl   (%rax)
   1400022f8:	48 8b 2f             	mov    (%rdi),%rbp
   1400022fb:	b9 18 00 00 00       	mov    $0x18,%ecx
   140002300:	44 0f b6 6b 10       	movzbl 0x10(%rbx),%r13d
   140002305:	e8 fe 3e 00 00       	call   140006208 <_Znwy>
   14000230a:	44 88 68 10          	mov    %r13b,0x10(%rax)
   14000230e:	48 89 c1             	mov    %rax,%rcx
   140002311:	48 89 ea             	mov    %rbp,%rdx
   140002314:	e8 4f 3f 00 00       	call   140006268 <_ZNSt8__detail15_List_node_base7_M_hookEPS0_>
   140002319:	48 8b 1b             	mov    (%rbx),%rbx
   14000231c:	48 83 47 10 01       	addq   $0x1,0x10(%rdi)
   140002321:	48 39 f3             	cmp    %rsi,%rbx
   140002324:	75 d2                	jne    1400022f8 <_ZN13NaturalBinary14divide_by_byteES_4BytePS_+0x198>
   140002326:	48 8b 6c 24 50       	mov    0x50(%rsp),%rbp
   14000232b:	48 39 dd             	cmp    %rbx,%rbp
   14000232e:	74 16                	je     140002346 <_ZN13NaturalBinary14divide_by_byteES_4BytePS_+0x1e6>
   140002330:	48 89 e9             	mov    %rbp,%rcx
   140002333:	48 8b 6d 00          	mov    0x0(%rbp),%rbp
   140002337:	ba 18 00 00 00       	mov    $0x18,%edx
   14000233c:	e8 cf 3e 00 00       	call   140006210 <_ZdlPvy>
   140002341:	48 39 f5             	cmp    %rsi,%rbp
   140002344:	75 ea                	jne    140002330 <_ZN13NaturalBinary14divide_by_byteES_4BytePS_+0x1d0>
   140002346:	48 8b 5c 24 30       	mov    0x30(%rsp),%rbx
   14000234b:	4c 39 e3             	cmp    %r12,%rbx
   14000234e:	74 15                	je     140002365 <_ZN13NaturalBinary14divide_by_byteES_4BytePS_+0x205>
   140002350:	48 89 d9             	mov    %rbx,%rcx
   140002353:	48 8b 1b             	mov    (%rbx),%rbx
   140002356:	ba 18 00 00 00       	mov    $0x18,%edx
   14000235b:	e8 b0 3e 00 00       	call   140006210 <_ZdlPvy>
   140002360:	4c 39 e3             	cmp    %r12,%rbx
   140002363:	75 eb                	jne    140002350 <_ZN13NaturalBinary14divide_by_byteES_4BytePS_+0x1f0>
   140002365:	0f 10 74 24 70       	movups 0x70(%rsp),%xmm6
   14000236a:	48 89 f8             	mov    %rdi,%rax
   14000236d:	48 81 c4 88 00 00 00 	add    $0x88,%rsp
   140002374:	5b                   	pop    %rbx
   140002375:	5e                   	pop    %rsi
   140002376:	5f                   	pop    %rdi
   140002377:	5d                   	pop    %rbp
   140002378:	41 5c                	pop    %r12
   14000237a:	41 5d                	pop    %r13
   14000237c:	41 5e                	pop    %r14
   14000237e:	41 5f                	pop    %r15
   140002380:	c3                   	ret
   140002381:	0f 1f 80 00 00 00 00 	nopl   0x0(%rax)
   140002388:	31 d2                	xor    %edx,%edx
   14000238a:	48 8d 4c 24 50       	lea    0x50(%rsp),%rcx
   14000238f:	e8 ec f2 ff ff       	call   140001680 <_ZN4ByteC1Ey>
   140002394:	b9 18 00 00 00       	mov    $0x18,%ecx
   140002399:	e8 6a 3e 00 00       	call   140006208 <_Znwy>
   14000239e:	48 89 ea             	mov    %rbp,%rdx
   1400023a1:	48 89 c1             	mov    %rax,%rcx
   1400023a4:	0f b6 44 24 50       	movzbl 0x50(%rsp),%eax
   1400023a9:	88 41 10             	mov    %al,0x10(%rcx)
   1400023ac:	e8 b7 3e 00 00       	call   140006268 <_ZNSt8__detail15_List_node_base7_M_hookEPS0_>
   1400023b1:	48 8b 5d 08          	mov    0x8(%rbp),%rbx
   1400023b5:	48 83 45 10 01       	addq   $0x1,0x10(%rbp)
   1400023ba:	0f b6 43 10          	movzbl 0x10(%rbx),%eax
   1400023be:	e9 eb fd ff ff       	jmp    1400021ae <_ZN13NaturalBinary14divide_by_byteES_4BytePS_+0x4e>
   1400023c3:	0f 1f 44 00 00       	nopl   0x0(%rax,%rax,1)
   1400023c8:	66 48 0f 6e c7       	movq   %rdi,%xmm0
   1400023cd:	48 c7 47 10 00 00 00 	movq   $0x0,0x10(%rdi)
   1400023d4:	00 
   1400023d5:	66 0f 6c c0          	punpcklqdq %xmm0,%xmm0
   1400023d9:	0f 11 07             	movups %xmm0,(%rdi)
   1400023dc:	eb 87                	jmp    140002365 <_ZN13NaturalBinary14divide_by_byteES_4BytePS_+0x205>
   1400023de:	48 8b 4c 24 50       	mov    0x50(%rsp),%rcx
   1400023e3:	48 89 c3             	mov    %rax,%rbx
   1400023e6:	48 39 f1             	cmp    %rsi,%rcx
   1400023e9:	74 32                	je     14000241d <_ZN13NaturalBinary14divide_by_byteES_4BytePS_+0x2bd>
   1400023eb:	48 8b 39             	mov    (%rcx),%rdi
   1400023ee:	ba 18 00 00 00       	mov    $0x18,%edx
   1400023f3:	e8 18 3e 00 00       	call   140006210 <_ZdlPvy>
   1400023f8:	48 89 f9             	mov    %rdi,%rcx
   1400023fb:	eb e9                	jmp    1400023e6 <_ZN13NaturalBinary14divide_by_byteES_4BytePS_+0x286>
   1400023fd:	48 8b 0f             	mov    (%rdi),%rcx
   140002400:	48 89 c3             	mov    %rax,%rbx
   140002403:	48 39 cf             	cmp    %rcx,%rdi
   140002406:	74 31                	je     140002439 <_ZN13NaturalBinary14divide_by_byteES_4BytePS_+0x2d9>
   140002408:	48 8b 29             	mov    (%rcx),%rbp
   14000240b:	ba 18 00 00 00       	mov    $0x18,%edx
   140002410:	e8 fb 3d 00 00       	call   140006210 <_ZdlPvy>
   140002415:	48 89 e9             	mov    %rbp,%rcx
   140002418:	eb e9                	jmp    140002403 <_ZN13NaturalBinary14divide_by_byteES_4BytePS_+0x2a3>
   14000241a:	48 89 c3             	mov    %rax,%rbx
   14000241d:	48 8b 4c 24 30       	mov    0x30(%rsp),%rcx
   140002422:	4c 39 e1             	cmp    %r12,%rcx
   140002425:	74 2e                	je     140002455 <_ZN13NaturalBinary14divide_by_byteES_4BytePS_+0x2f5>
   140002427:	48 8b 31             	mov    (%rcx),%rsi
   14000242a:	ba 18 00 00 00       	mov    $0x18,%edx
   14000242f:	e8 dc 3d 00 00       	call   140006210 <_ZdlPvy>
   140002434:	48 89 f1             	mov    %rsi,%rcx
   140002437:	eb e9                	jmp    140002422 <_ZN13NaturalBinary14divide_by_byteES_4BytePS_+0x2c2>
   140002439:	48 8b 4c 24 50       	mov    0x50(%rsp),%rcx
   14000243e:	48 39 f1             	cmp    %rsi,%rcx
   140002441:	74 da                	je     14000241d <_ZN13NaturalBinary14divide_by_byteES_4BytePS_+0x2bd>
   140002443:	48 8b 39             	mov    (%rcx),%rdi
   140002446:	ba 18 00 00 00       	mov    $0x18,%edx
   14000244b:	e8 c0 3d 00 00       	call   140006210 <_ZdlPvy>
   140002450:	48 89 f9             	mov    %rdi,%rcx
   140002453:	eb e9                	jmp    14000243e <_ZN13NaturalBinary14divide_by_byteES_4BytePS_+0x2de>
   140002455:	48 89 d9             	mov    %rbx,%rcx
   140002458:	e8 03 4f 00 00       	call   140007360 <_Unwind_Resume>
   14000245d:	90                   	nop
   14000245e:	66 90                	xchg   %ax,%ax

0000000140002460 <_ZN13NaturalBinary8optimizeEv>:
   140002460:	56                   	push   %rsi
   140002461:	53                   	push   %rbx
   140002462:	48 83 ec 28          	sub    $0x28,%rsp
   140002466:	31 d2                	xor    %edx,%edx
   140002468:	48 8b 41 10          	mov    0x10(%rcx),%rax
   14000246c:	48 89 ce             	mov    %rcx,%rsi
   14000246f:	48 83 f8 01          	cmp    $0x1,%rax
   140002473:	77 37                	ja     1400024ac <_ZN13NaturalBinary8optimizeEv+0x4c>
   140002475:	eb 3f                	jmp    1400024b6 <_ZN13NaturalBinary8optimizeEv+0x56>
   140002477:	66 0f 1f 84 00 00 00 	nopw   0x0(%rax,%rax,1)
   14000247e:	00 00 
   140002480:	48 83 e8 01          	sub    $0x1,%rax
   140002484:	48 89 d9             	mov    %rbx,%rcx
   140002487:	48 89 46 10          	mov    %rax,0x10(%rsi)
   14000248b:	e8 d0 3d 00 00       	call   140006260 <_ZNSt8__detail15_List_node_base9_M_unhookEv>
   140002490:	ba 18 00 00 00       	mov    $0x18,%edx
   140002495:	48 89 d9             	mov    %rbx,%rcx
   140002498:	e8 73 3d 00 00       	call   140006210 <_ZdlPvy>
   14000249d:	48 8b 46 10          	mov    0x10(%rsi),%rax
   1400024a1:	ba 01 00 00 00       	mov    $0x1,%edx
   1400024a6:	48 83 f8 01          	cmp    $0x1,%rax
   1400024aa:	76 0a                	jbe    1400024b6 <_ZN13NaturalBinary8optimizeEv+0x56>
   1400024ac:	48 8b 5e 08          	mov    0x8(%rsi),%rbx
   1400024b0:	80 7b 10 00          	cmpb   $0x0,0x10(%rbx)
   1400024b4:	74 ca                	je     140002480 <_ZN13NaturalBinary8optimizeEv+0x20>
   1400024b6:	89 d0                	mov    %edx,%eax
   1400024b8:	48 83 c4 28          	add    $0x28,%rsp
   1400024bc:	5b                   	pop    %rbx
   1400024bd:	5e                   	pop    %rsi
   1400024be:	c3                   	ret
   1400024bf:	90                   	nop

00000001400024c0 <_ZN13NaturalBinary4sizeEv>:
   1400024c0:	48 8b 41 10          	mov    0x10(%rcx),%rax
   1400024c4:	eb 14                	jmp    1400024da <_ZN13NaturalBinary4sizeEv+0x1a>
   1400024c6:	66 2e 0f 1f 84 00 00 	cs nopw 0x0(%rax,%rax,1)
   1400024cd:	00 00 00 
   1400024d0:	48 8b 49 08          	mov    0x8(%rcx),%rcx
   1400024d4:	80 79 10 00          	cmpb   $0x0,0x10(%rcx)
   1400024d8:	75 05                	jne    1400024df <_ZN13NaturalBinary4sizeEv+0x1f>
   1400024da:	83 e8 01             	sub    $0x1,%eax
   1400024dd:	75 f1                	jne    1400024d0 <_ZN13NaturalBinary4sizeEv+0x10>
   1400024df:	c3                   	ret

00000001400024e0 <_ZN13NaturalBinary3msbEv>:
   1400024e0:	4c 8b 42 10          	mov    0x10(%rdx),%r8
   1400024e4:	48 89 c8             	mov    %rcx,%rax
   1400024e7:	eb 11                	jmp    1400024fa <_ZN13NaturalBinary3msbEv+0x1a>
   1400024e9:	0f 1f 80 00 00 00 00 	nopl   0x0(%rax)
   1400024f0:	48 8b 52 08          	mov    0x8(%rdx),%rdx
   1400024f4:	80 7a 10 00          	cmpb   $0x0,0x10(%rdx)
   1400024f8:	75 09                	jne    140002503 <_ZN13NaturalBinary3msbEv+0x23>
   1400024fa:	48 89 10             	mov    %rdx,(%rax)
   1400024fd:	41 83 e8 01          	sub    $0x1,%r8d
   140002501:	75 ed                	jne    1400024f0 <_ZN13NaturalBinary3msbEv+0x10>
   140002503:	c3                   	ret
   140002504:	66 66 2e 0f 1f 84 00 	data16 cs nopw 0x0(%rax,%rax,1)
   14000250b:	00 00 00 00 
   14000250f:	90                   	nop

0000000140002510 <_ZN13NaturalBinaryltES_>:
   140002510:	56                   	push   %rsi
   140002511:	53                   	push   %rbx
   140002512:	44 8b 41 10          	mov    0x10(%rcx),%r8d
   140002516:	48 89 cb             	mov    %rcx,%rbx
   140002519:	48 89 d6             	mov    %rdx,%rsi
   14000251c:	49 89 ca             	mov    %rcx,%r10
   14000251f:	41 83 e8 01          	sub    $0x1,%r8d
   140002523:	0f 84 47 01 00 00    	je     140002670 <_ZN13NaturalBinaryltES_+0x160>
   140002529:	48 89 c8             	mov    %rcx,%rax
   14000252c:	44 89 c2             	mov    %r8d,%edx
   14000252f:	eb 0c                	jmp    14000253d <_ZN13NaturalBinaryltES_+0x2d>
   140002531:	0f 1f 80 00 00 00 00 	nopl   0x0(%rax)
   140002538:	83 ea 01             	sub    $0x1,%edx
   14000253b:	74 0a                	je     140002547 <_ZN13NaturalBinaryltES_+0x37>
   14000253d:	48 8b 40 08          	mov    0x8(%rax),%rax
   140002541:	80 78 10 00          	cmpb   $0x0,0x10(%rax)
   140002545:	74 f1                	je     140002538 <_ZN13NaturalBinaryltES_+0x28>
   140002547:	44 8b 4e 10          	mov    0x10(%rsi),%r9d
   14000254b:	49 89 f3             	mov    %rsi,%r11
   14000254e:	41 83 e9 01          	sub    $0x1,%r9d
   140002552:	74 33                	je     140002587 <_ZN13NaturalBinaryltES_+0x77>
   140002554:	44 89 c9             	mov    %r9d,%ecx
   140002557:	48 89 f0             	mov    %rsi,%rax
   14000255a:	eb 09                	jmp    140002565 <_ZN13NaturalBinaryltES_+0x55>
   14000255c:	0f 1f 40 00          	nopl   0x0(%rax)
   140002560:	83 e9 01             	sub    $0x1,%ecx
   140002563:	74 1b                	je     140002580 <_ZN13NaturalBinaryltES_+0x70>
   140002565:	48 8b 40 08          	mov    0x8(%rax),%rax
   140002569:	80 78 10 00          	cmpb   $0x0,0x10(%rax)
   14000256d:	74 f1                	je     140002560 <_ZN13NaturalBinaryltES_+0x50>
   14000256f:	b8 01 00 00 00       	mov    $0x1,%eax
   140002574:	39 ca                	cmp    %ecx,%edx
   140002576:	73 08                	jae    140002580 <_ZN13NaturalBinaryltES_+0x70>
   140002578:	5b                   	pop    %rbx
   140002579:	5e                   	pop    %rsi
   14000257a:	c3                   	ret
   14000257b:	0f 1f 44 00 00       	nopl   0x0(%rax,%rax,1)
   140002580:	31 d2                	xor    %edx,%edx
   140002582:	45 85 c0             	test   %r8d,%r8d
   140002585:	74 25                	je     1400025ac <_ZN13NaturalBinaryltES_+0x9c>
   140002587:	48 89 d8             	mov    %rbx,%rax
   14000258a:	44 89 c2             	mov    %r8d,%edx
   14000258d:	eb 0a                	jmp    140002599 <_ZN13NaturalBinaryltES_+0x89>
   14000258f:	90                   	nop
   140002590:	83 ea 01             	sub    $0x1,%edx
   140002593:	0f 84 af 00 00 00    	je     140002648 <_ZN13NaturalBinaryltES_+0x138>
   140002599:	48 8b 40 08          	mov    0x8(%rax),%rax
   14000259d:	80 78 10 00          	cmpb   $0x0,0x10(%rax)
   1400025a1:	74 ed                	je     140002590 <_ZN13NaturalBinaryltES_+0x80>
   1400025a3:	45 85 c9             	test   %r9d,%r9d
   1400025a6:	0f 84 df 00 00 00    	je     14000268b <_ZN13NaturalBinaryltES_+0x17b>
   1400025ac:	48 89 f0             	mov    %rsi,%rax
   1400025af:	44 89 c9             	mov    %r9d,%ecx
   1400025b2:	eb 09                	jmp    1400025bd <_ZN13NaturalBinaryltES_+0xad>
   1400025b4:	0f 1f 40 00          	nopl   0x0(%rax)
   1400025b8:	83 e9 01             	sub    $0x1,%ecx
   1400025bb:	74 0a                	je     1400025c7 <_ZN13NaturalBinaryltES_+0xb7>
   1400025bd:	48 8b 40 08          	mov    0x8(%rax),%rax
   1400025c1:	80 78 10 00          	cmpb   $0x0,0x10(%rax)
   1400025c5:	74 f1                	je     1400025b8 <_ZN13NaturalBinaryltES_+0xa8>
   1400025c7:	31 c0                	xor    %eax,%eax
   1400025c9:	39 d1                	cmp    %edx,%ecx
   1400025cb:	72 ab                	jb     140002578 <_ZN13NaturalBinaryltES_+0x68>
   1400025cd:	45 85 c0             	test   %r8d,%r8d
   1400025d0:	75 14                	jne    1400025e6 <_ZN13NaturalBinaryltES_+0xd6>
   1400025d2:	e9 c3 00 00 00       	jmp    14000269a <_ZN13NaturalBinaryltES_+0x18a>
   1400025d7:	66 0f 1f 84 00 00 00 	nopw   0x0(%rax,%rax,1)
   1400025de:	00 00 
   1400025e0:	41 83 e8 01          	sub    $0x1,%r8d
   1400025e4:	74 72                	je     140002658 <_ZN13NaturalBinaryltES_+0x148>
   1400025e6:	4c 89 d0             	mov    %r10,%rax
   1400025e9:	4d 8b 52 08          	mov    0x8(%r10),%r10
   1400025ed:	41 80 7a 10 00       	cmpb   $0x0,0x10(%r10)
   1400025f2:	74 ec                	je     1400025e0 <_ZN13NaturalBinaryltES_+0xd0>
   1400025f4:	48 89 f2             	mov    %rsi,%rdx
   1400025f7:	45 85 c9             	test   %r9d,%r9d
   1400025fa:	75 0a                	jne    140002606 <_ZN13NaturalBinaryltES_+0xf6>
   1400025fc:	eb 16                	jmp    140002614 <_ZN13NaturalBinaryltES_+0x104>
   1400025fe:	66 90                	xchg   %ax,%ax
   140002600:	41 83 e9 01          	sub    $0x1,%r9d
   140002604:	74 5a                	je     140002660 <_ZN13NaturalBinaryltES_+0x150>
   140002606:	4c 89 da             	mov    %r11,%rdx
   140002609:	4d 8b 5b 08          	mov    0x8(%r11),%r11
   14000260d:	41 80 7b 10 00       	cmpb   $0x0,0x10(%r11)
   140002612:	74 ec                	je     140002600 <_ZN13NaturalBinaryltES_+0xf0>
   140002614:	4c 8b 0b             	mov    (%rbx),%r9
   140002617:	eb 22                	jmp    14000263b <_ZN13NaturalBinaryltES_+0x12b>
   140002619:	0f 1f 80 00 00 00 00 	nopl   0x0(%rax)
   140002620:	48 8b 40 08          	mov    0x8(%rax),%rax
   140002624:	48 8b 52 08          	mov    0x8(%rdx),%rdx
   140002628:	0f b6 48 10          	movzbl 0x10(%rax),%ecx
   14000262c:	44 0f b6 42 10       	movzbl 0x10(%rdx),%r8d
   140002631:	44 38 c1             	cmp    %r8b,%cl
   140002634:	72 32                	jb     140002668 <_ZN13NaturalBinaryltES_+0x158>
   140002636:	41 38 c8             	cmp    %cl,%r8b
   140002639:	72 05                	jb     140002640 <_ZN13NaturalBinaryltES_+0x130>
   14000263b:	4c 39 c8             	cmp    %r9,%rax
   14000263e:	75 e0                	jne    140002620 <_ZN13NaturalBinaryltES_+0x110>
   140002640:	31 c0                	xor    %eax,%eax
   140002642:	5b                   	pop    %rbx
   140002643:	5e                   	pop    %rsi
   140002644:	c3                   	ret
   140002645:	0f 1f 00             	nopl   (%rax)
   140002648:	45 85 c9             	test   %r9d,%r9d
   14000264b:	0f 85 5b ff ff ff    	jne    1400025ac <_ZN13NaturalBinaryltES_+0x9c>
   140002651:	eb 93                	jmp    1400025e6 <_ZN13NaturalBinaryltES_+0xd6>
   140002653:	0f 1f 44 00 00       	nopl   0x0(%rax,%rax,1)
   140002658:	4c 89 d0             	mov    %r10,%rax
   14000265b:	eb 97                	jmp    1400025f4 <_ZN13NaturalBinaryltES_+0xe4>
   14000265d:	0f 1f 00             	nopl   (%rax)
   140002660:	4c 89 da             	mov    %r11,%rdx
   140002663:	eb af                	jmp    140002614 <_ZN13NaturalBinaryltES_+0x104>
   140002665:	0f 1f 00             	nopl   (%rax)
   140002668:	b8 01 00 00 00       	mov    $0x1,%eax
   14000266d:	5b                   	pop    %rbx
   14000266e:	5e                   	pop    %rsi
   14000266f:	c3                   	ret
   140002670:	44 8b 4e 10          	mov    0x10(%rsi),%r9d
   140002674:	49 89 d3             	mov    %rdx,%r11
   140002677:	31 d2                	xor    %edx,%edx
   140002679:	41 83 e9 01          	sub    $0x1,%r9d
   14000267d:	0f 85 d1 fe ff ff    	jne    140002554 <_ZN13NaturalBinaryltES_+0x44>
   140002683:	48 89 c8             	mov    %rcx,%rax
   140002686:	48 89 f2             	mov    %rsi,%rdx
   140002689:	eb 89                	jmp    140002614 <_ZN13NaturalBinaryltES_+0x104>
   14000268b:	31 c0                	xor    %eax,%eax
   14000268d:	85 d2                	test   %edx,%edx
   14000268f:	0f 85 e3 fe ff ff    	jne    140002578 <_ZN13NaturalBinaryltES_+0x68>
   140002695:	e9 4c ff ff ff       	jmp    1400025e6 <_ZN13NaturalBinaryltES_+0xd6>
   14000269a:	48 89 d8             	mov    %rbx,%rax
   14000269d:	e9 64 ff ff ff       	jmp    140002606 <_ZN13NaturalBinaryltES_+0xf6>
   1400026a2:	66 66 2e 0f 1f 84 00 	data16 cs nopw 0x0(%rax,%rax,1)
   1400026a9:	00 00 00 00 
   1400026ad:	0f 1f 00             	nopl   (%rax)

00000001400026b0 <_ZN13NaturalBinarygtES_>:
   1400026b0:	56                   	push   %rsi
   1400026b1:	53                   	push   %rbx
   1400026b2:	48 8b 42 10          	mov    0x10(%rdx),%rax
   1400026b6:	44 8b 49 10          	mov    0x10(%rcx),%r9d
   1400026ba:	8d 58 ff             	lea    -0x1(%rax),%ebx
   1400026bd:	49 89 cb             	mov    %rcx,%r11
   1400026c0:	49 89 d0             	mov    %rdx,%r8
   1400026c3:	48 89 ce             	mov    %rcx,%rsi
   1400026c6:	49 89 d2             	mov    %rdx,%r10
   1400026c9:	41 83 e9 01          	sub    $0x1,%r9d
   1400026cd:	0f 84 4d 01 00 00    	je     140002820 <_ZN13NaturalBinarygtES_+0x170>
   1400026d3:	48 89 c8             	mov    %rcx,%rax
   1400026d6:	44 89 ca             	mov    %r9d,%edx
   1400026d9:	eb 0e                	jmp    1400026e9 <_ZN13NaturalBinarygtES_+0x39>
   1400026db:	0f 1f 44 00 00       	nopl   0x0(%rax,%rax,1)
   1400026e0:	83 ea 01             	sub    $0x1,%edx
   1400026e3:	0f 84 97 00 00 00    	je     140002780 <_ZN13NaturalBinarygtES_+0xd0>
   1400026e9:	48 8b 40 08          	mov    0x8(%rax),%rax
   1400026ed:	80 78 10 00          	cmpb   $0x0,0x10(%rax)
   1400026f1:	74 ed                	je     1400026e0 <_ZN13NaturalBinarygtES_+0x30>
   1400026f3:	85 db                	test   %ebx,%ebx
   1400026f5:	0f 84 1d 01 00 00    	je     140002818 <_ZN13NaturalBinarygtES_+0x168>
   1400026fb:	89 d9                	mov    %ebx,%ecx
   1400026fd:	4c 89 c0             	mov    %r8,%rax
   140002700:	eb 0b                	jmp    14000270d <_ZN13NaturalBinarygtES_+0x5d>
   140002702:	66 0f 1f 44 00 00    	nopw   0x0(%rax,%rax,1)
   140002708:	83 e9 01             	sub    $0x1,%ecx
   14000270b:	74 0a                	je     140002717 <_ZN13NaturalBinarygtES_+0x67>
   14000270d:	48 8b 40 08          	mov    0x8(%rax),%rax
   140002711:	80 78 10 00          	cmpb   $0x0,0x10(%rax)
   140002715:	74 f1                	je     140002708 <_ZN13NaturalBinarygtES_+0x58>
   140002717:	b8 01 00 00 00       	mov    $0x1,%eax
   14000271c:	39 d1                	cmp    %edx,%ecx
   14000271e:	72 55                	jb     140002775 <_ZN13NaturalBinarygtES_+0xc5>
   140002720:	45 85 c9             	test   %r9d,%r9d
   140002723:	0f 84 17 01 00 00    	je     140002840 <_ZN13NaturalBinarygtES_+0x190>
   140002729:	4c 89 d8             	mov    %r11,%rax
   14000272c:	44 89 ca             	mov    %r9d,%edx
   14000272f:	eb 0c                	jmp    14000273d <_ZN13NaturalBinarygtES_+0x8d>
   140002731:	0f 1f 80 00 00 00 00 	nopl   0x0(%rax)
   140002738:	83 ea 01             	sub    $0x1,%edx
   14000273b:	74 0a                	je     140002747 <_ZN13NaturalBinarygtES_+0x97>
   14000273d:	48 8b 40 08          	mov    0x8(%rax),%rax
   140002741:	80 78 10 00          	cmpb   $0x0,0x10(%rax)
   140002745:	74 f1                	je     140002738 <_ZN13NaturalBinarygtES_+0x88>
   140002747:	85 db                	test   %ebx,%ebx
   140002749:	0f 84 e4 00 00 00    	je     140002833 <_ZN13NaturalBinarygtES_+0x183>
   14000274f:	4c 89 c0             	mov    %r8,%rax
   140002752:	89 d9                	mov    %ebx,%ecx
   140002754:	eb 0f                	jmp    140002765 <_ZN13NaturalBinarygtES_+0xb5>
   140002756:	66 2e 0f 1f 84 00 00 	cs nopw 0x0(%rax,%rax,1)
   14000275d:	00 00 00 
   140002760:	83 e9 01             	sub    $0x1,%ecx
   140002763:	74 2b                	je     140002790 <_ZN13NaturalBinarygtES_+0xe0>
   140002765:	48 8b 40 08          	mov    0x8(%rax),%rax
   140002769:	80 78 10 00          	cmpb   $0x0,0x10(%rax)
   14000276d:	74 f1                	je     140002760 <_ZN13NaturalBinarygtES_+0xb0>
   14000276f:	31 c0                	xor    %eax,%eax
   140002771:	39 ca                	cmp    %ecx,%edx
   140002773:	73 1b                	jae    140002790 <_ZN13NaturalBinarygtES_+0xe0>
   140002775:	5b                   	pop    %rbx
   140002776:	5e                   	pop    %rsi
   140002777:	c3                   	ret
   140002778:	0f 1f 84 00 00 00 00 	nopl   0x0(%rax,%rax,1)
   14000277f:	00 
   140002780:	85 db                	test   %ebx,%ebx
   140002782:	0f 85 73 ff ff ff    	jne    1400026fb <_ZN13NaturalBinarygtES_+0x4b>
   140002788:	eb 9f                	jmp    140002729 <_ZN13NaturalBinarygtES_+0x79>
   14000278a:	66 0f 1f 44 00 00    	nopw   0x0(%rax,%rax,1)
   140002790:	45 85 c9             	test   %r9d,%r9d
   140002793:	75 11                	jne    1400027a6 <_ZN13NaturalBinarygtES_+0xf6>
   140002795:	e9 b6 00 00 00       	jmp    140002850 <_ZN13NaturalBinarygtES_+0x1a0>
   14000279a:	66 0f 1f 44 00 00    	nopw   0x0(%rax,%rax,1)
   1400027a0:	41 83 e9 01          	sub    $0x1,%r9d
   1400027a4:	74 6a                	je     140002810 <_ZN13NaturalBinarygtES_+0x160>
   1400027a6:	48 89 f0             	mov    %rsi,%rax
   1400027a9:	48 8b 76 08          	mov    0x8(%rsi),%rsi
   1400027ad:	80 7e 10 00          	cmpb   $0x0,0x10(%rsi)
   1400027b1:	74 ed                	je     1400027a0 <_ZN13NaturalBinarygtES_+0xf0>
   1400027b3:	4c 89 c2             	mov    %r8,%rdx
   1400027b6:	85 db                	test   %ebx,%ebx
   1400027b8:	75 0b                	jne    1400027c5 <_ZN13NaturalBinarygtES_+0x115>
   1400027ba:	eb 17                	jmp    1400027d3 <_ZN13NaturalBinarygtES_+0x123>
   1400027bc:	0f 1f 40 00          	nopl   0x0(%rax)
   1400027c0:	83 eb 01             	sub    $0x1,%ebx
   1400027c3:	74 43                	je     140002808 <_ZN13NaturalBinarygtES_+0x158>
   1400027c5:	4c 89 d2             	mov    %r10,%rdx
   1400027c8:	4d 8b 52 08          	mov    0x8(%r10),%r10
   1400027cc:	41 80 7a 10 00       	cmpb   $0x0,0x10(%r10)
   1400027d1:	74 ed                	je     1400027c0 <_ZN13NaturalBinarygtES_+0x110>
   1400027d3:	4d 8b 0b             	mov    (%r11),%r9
   1400027d6:	eb 23                	jmp    1400027fb <_ZN13NaturalBinarygtES_+0x14b>
   1400027d8:	0f 1f 84 00 00 00 00 	nopl   0x0(%rax,%rax,1)
   1400027df:	00 
   1400027e0:	48 8b 40 08          	mov    0x8(%rax),%rax
   1400027e4:	48 8b 52 08          	mov    0x8(%rdx),%rdx
   1400027e8:	44 0f b6 40 10       	movzbl 0x10(%rax),%r8d
   1400027ed:	0f b6 4a 10          	movzbl 0x10(%rdx),%ecx
   1400027f1:	44 38 c1             	cmp    %r8b,%cl
   1400027f4:	72 22                	jb     140002818 <_ZN13NaturalBinarygtES_+0x168>
   1400027f6:	41 38 c8             	cmp    %cl,%r8b
   1400027f9:	72 05                	jb     140002800 <_ZN13NaturalBinarygtES_+0x150>
   1400027fb:	4c 39 c8             	cmp    %r9,%rax
   1400027fe:	75 e0                	jne    1400027e0 <_ZN13NaturalBinarygtES_+0x130>
   140002800:	31 c0                	xor    %eax,%eax
   140002802:	5b                   	pop    %rbx
   140002803:	5e                   	pop    %rsi
   140002804:	c3                   	ret
   140002805:	0f 1f 00             	nopl   (%rax)
   140002808:	4c 89 d2             	mov    %r10,%rdx
   14000280b:	eb c6                	jmp    1400027d3 <_ZN13NaturalBinarygtES_+0x123>
   14000280d:	0f 1f 00             	nopl   (%rax)
   140002810:	48 89 f0             	mov    %rsi,%rax
   140002813:	eb 9e                	jmp    1400027b3 <_ZN13NaturalBinarygtES_+0x103>
   140002815:	0f 1f 00             	nopl   (%rax)
   140002818:	b8 01 00 00 00       	mov    $0x1,%eax
   14000281d:	5b                   	pop    %rbx
   14000281e:	5e                   	pop    %rsi
   14000281f:	c3                   	ret
   140002820:	31 d2                	xor    %edx,%edx
   140002822:	83 f8 01             	cmp    $0x1,%eax
   140002825:	0f 85 d0 fe ff ff    	jne    1400026fb <_ZN13NaturalBinarygtES_+0x4b>
   14000282b:	4c 89 c2             	mov    %r8,%rdx
   14000282e:	4c 89 d8             	mov    %r11,%rax
   140002831:	eb a0                	jmp    1400027d3 <_ZN13NaturalBinarygtES_+0x123>
   140002833:	45 85 c9             	test   %r9d,%r9d
   140002836:	0f 85 6a ff ff ff    	jne    1400027a6 <_ZN13NaturalBinarygtES_+0xf6>
   14000283c:	eb ed                	jmp    14000282b <_ZN13NaturalBinarygtES_+0x17b>
   14000283e:	66 90                	xchg   %ax,%ax
   140002840:	31 d2                	xor    %edx,%edx
   140002842:	85 db                	test   %ebx,%ebx
   140002844:	0f 85 05 ff ff ff    	jne    14000274f <_ZN13NaturalBinarygtES_+0x9f>
   14000284a:	eb df                	jmp    14000282b <_ZN13NaturalBinarygtES_+0x17b>
   14000284c:	0f 1f 40 00          	nopl   0x0(%rax)
   140002850:	4c 89 d8             	mov    %r11,%rax
   140002853:	e9 6d ff ff ff       	jmp    1400027c5 <_ZN13NaturalBinarygtES_+0x115>
   140002858:	0f 1f 84 00 00 00 00 	nopl   0x0(%rax,%rax,1)
   14000285f:	00 

0000000140002860 <_ZN13NaturalBinaryeqES_>:
   140002860:	56                   	push   %rsi
   140002861:	53                   	push   %rbx
   140002862:	48 8b 42 10          	mov    0x10(%rdx),%rax
   140002866:	44 8b 59 10          	mov    0x10(%rcx),%r11d
   14000286a:	8d 58 ff             	lea    -0x1(%rax),%ebx
   14000286d:	48 89 ce             	mov    %rcx,%rsi
   140002870:	49 89 ca             	mov    %rcx,%r10
   140002873:	49 89 d1             	mov    %rdx,%r9
   140002876:	41 83 eb 01          	sub    $0x1,%r11d
   14000287a:	0f 84 e5 00 00 00    	je     140002965 <_ZN13NaturalBinaryeqES_+0x105>
   140002880:	48 89 c8             	mov    %rcx,%rax
   140002883:	44 89 d9             	mov    %r11d,%ecx
   140002886:	eb 11                	jmp    140002899 <_ZN13NaturalBinaryeqES_+0x39>
   140002888:	0f 1f 84 00 00 00 00 	nopl   0x0(%rax,%rax,1)
   14000288f:	00 
   140002890:	83 e9 01             	sub    $0x1,%ecx
   140002893:	0f 84 a7 00 00 00    	je     140002940 <_ZN13NaturalBinaryeqES_+0xe0>
   140002899:	48 8b 40 08          	mov    0x8(%rax),%rax
   14000289d:	80 78 10 00          	cmpb   $0x0,0x10(%rax)
   1400028a1:	74 ed                	je     140002890 <_ZN13NaturalBinaryeqES_+0x30>
   1400028a3:	85 db                	test   %ebx,%ebx
   1400028a5:	0f 84 a5 00 00 00    	je     140002950 <_ZN13NaturalBinaryeqES_+0xf0>
   1400028ab:	48 89 d0             	mov    %rdx,%rax
   1400028ae:	41 89 d8             	mov    %ebx,%r8d
   1400028b1:	eb 0b                	jmp    1400028be <_ZN13NaturalBinaryeqES_+0x5e>
   1400028b3:	0f 1f 44 00 00       	nopl   0x0(%rax,%rax,1)
   1400028b8:	41 83 e8 01          	sub    $0x1,%r8d
   1400028bc:	74 0a                	je     1400028c8 <_ZN13NaturalBinaryeqES_+0x68>
   1400028be:	48 8b 40 08          	mov    0x8(%rax),%rax
   1400028c2:	80 78 10 00          	cmpb   $0x0,0x10(%rax)
   1400028c6:	74 f0                	je     1400028b8 <_ZN13NaturalBinaryeqES_+0x58>
   1400028c8:	31 c0                	xor    %eax,%eax
   1400028ca:	41 39 c8             	cmp    %ecx,%r8d
   1400028cd:	75 6d                	jne    14000293c <_ZN13NaturalBinaryeqES_+0xdc>
   1400028cf:	45 85 db             	test   %r11d,%r11d
   1400028d2:	75 12                	jne    1400028e6 <_ZN13NaturalBinaryeqES_+0x86>
   1400028d4:	e9 9f 00 00 00       	jmp    140002978 <_ZN13NaturalBinaryeqES_+0x118>
   1400028d9:	0f 1f 80 00 00 00 00 	nopl   0x0(%rax)
   1400028e0:	41 83 eb 01          	sub    $0x1,%r11d
   1400028e4:	74 72                	je     140002958 <_ZN13NaturalBinaryeqES_+0xf8>
   1400028e6:	4c 89 d1             	mov    %r10,%rcx
   1400028e9:	4d 8b 52 08          	mov    0x8(%r10),%r10
   1400028ed:	41 80 7a 10 00       	cmpb   $0x0,0x10(%r10)
   1400028f2:	74 ec                	je     1400028e0 <_ZN13NaturalBinaryeqES_+0x80>
   1400028f4:	48 89 d0             	mov    %rdx,%rax
   1400028f7:	85 db                	test   %ebx,%ebx
   1400028f9:	75 0a                	jne    140002905 <_ZN13NaturalBinaryeqES_+0xa5>
   1400028fb:	eb 16                	jmp    140002913 <_ZN13NaturalBinaryeqES_+0xb3>
   1400028fd:	0f 1f 00             	nopl   (%rax)
   140002900:	83 eb 01             	sub    $0x1,%ebx
   140002903:	74 5b                	je     140002960 <_ZN13NaturalBinaryeqES_+0x100>
   140002905:	4c 89 c8             	mov    %r9,%rax
   140002908:	4d 8b 49 08          	mov    0x8(%r9),%r9
   14000290c:	41 80 79 10 00       	cmpb   $0x0,0x10(%r9)
   140002911:	74 ed                	je     140002900 <_ZN13NaturalBinaryeqES_+0xa0>
   140002913:	48 8b 16             	mov    (%rsi),%rdx
   140002916:	eb 1a                	jmp    140002932 <_ZN13NaturalBinaryeqES_+0xd2>
   140002918:	0f 1f 84 00 00 00 00 	nopl   0x0(%rax,%rax,1)
   14000291f:	00 
   140002920:	48 8b 40 08          	mov    0x8(%rax),%rax
   140002924:	48 8b 49 08          	mov    0x8(%rcx),%rcx
   140002928:	0f b6 70 10          	movzbl 0x10(%rax),%esi
   14000292c:	40 38 71 10          	cmp    %sil,0x10(%rcx)
   140002930:	75 1e                	jne    140002950 <_ZN13NaturalBinaryeqES_+0xf0>
   140002932:	48 39 d1             	cmp    %rdx,%rcx
   140002935:	75 e9                	jne    140002920 <_ZN13NaturalBinaryeqES_+0xc0>
   140002937:	b8 01 00 00 00       	mov    $0x1,%eax
   14000293c:	5b                   	pop    %rbx
   14000293d:	5e                   	pop    %rsi
   14000293e:	c3                   	ret
   14000293f:	90                   	nop
   140002940:	85 db                	test   %ebx,%ebx
   140002942:	0f 85 63 ff ff ff    	jne    1400028ab <_ZN13NaturalBinaryeqES_+0x4b>
   140002948:	eb 9c                	jmp    1400028e6 <_ZN13NaturalBinaryeqES_+0x86>
   14000294a:	66 0f 1f 44 00 00    	nopw   0x0(%rax,%rax,1)
   140002950:	31 c0                	xor    %eax,%eax
   140002952:	5b                   	pop    %rbx
   140002953:	5e                   	pop    %rsi
   140002954:	c3                   	ret
   140002955:	0f 1f 00             	nopl   (%rax)
   140002958:	4c 89 d1             	mov    %r10,%rcx
   14000295b:	eb 97                	jmp    1400028f4 <_ZN13NaturalBinaryeqES_+0x94>
   14000295d:	0f 1f 00             	nopl   (%rax)
   140002960:	4c 89 c8             	mov    %r9,%rax
   140002963:	eb ae                	jmp    140002913 <_ZN13NaturalBinaryeqES_+0xb3>
   140002965:	31 c9                	xor    %ecx,%ecx
   140002967:	83 f8 01             	cmp    $0x1,%eax
   14000296a:	0f 85 3b ff ff ff    	jne    1400028ab <_ZN13NaturalBinaryeqES_+0x4b>
   140002970:	48 89 f1             	mov    %rsi,%rcx
   140002973:	48 89 d0             	mov    %rdx,%rax
   140002976:	eb 9b                	jmp    140002913 <_ZN13NaturalBinaryeqES_+0xb3>
   140002978:	48 89 f1             	mov    %rsi,%rcx
   14000297b:	e9 74 ff ff ff       	jmp    1400028f4 <_ZN13NaturalBinaryeqES_+0x94>

0000000140002980 <_ZN13NaturalBinaryleES_>:
   140002980:	41 55                	push   %r13
   140002982:	41 54                	push   %r12
   140002984:	55                   	push   %rbp
   140002985:	57                   	push   %rdi
   140002986:	56                   	push   %rsi
   140002987:	53                   	push   %rbx
   140002988:	48 83 ec 68          	sub    $0x68,%rsp
   14000298c:	48 8b 1a             	mov    (%rdx),%rbx
   14000298f:	48 8d 74 24 20       	lea    0x20(%rsp),%rsi
   140002994:	48 89 cd             	mov    %rcx,%rbp
   140002997:	48 89 d7             	mov    %rdx,%rdi
   14000299a:	48 c7 44 24 30 00 00 	movq   $0x0,0x30(%rsp)
   1400029a1:	00 00 
   1400029a3:	66 48 0f 6e c6       	movq   %rsi,%xmm0
   1400029a8:	66 0f 6c c0          	punpcklqdq %xmm0,%xmm0
   1400029ac:	0f 11 44 24 20       	movups %xmm0,0x20(%rsp)
   1400029b1:	48 39 da             	cmp    %rbx,%rdx
   1400029b4:	74 34                	je     1400029ea <_ZN13NaturalBinaryleES_+0x6a>
   1400029b6:	66 2e 0f 1f 84 00 00 	cs nopw 0x0(%rax,%rax,1)
   1400029bd:	00 00 00 
   1400029c0:	b9 18 00 00 00       	mov    $0x18,%ecx
   1400029c5:	e8 3e 38 00 00       	call   140006208 <_Znwy>
   1400029ca:	48 89 c1             	mov    %rax,%rcx
   1400029cd:	0f b6 43 10          	movzbl 0x10(%rbx),%eax
   1400029d1:	48 89 f2             	mov    %rsi,%rdx
   1400029d4:	88 41 10             	mov    %al,0x10(%rcx)
   1400029d7:	e8 8c 38 00 00       	call   140006268 <_ZNSt8__detail15_List_node_base7_M_hookEPS0_>
   1400029dc:	48 8b 1b             	mov    (%rbx),%rbx
   1400029df:	48 83 44 24 30 01    	addq   $0x1,0x30(%rsp)
   1400029e5:	48 39 df             	cmp    %rbx,%rdi
   1400029e8:	75 d6                	jne    1400029c0 <_ZN13NaturalBinaryleES_+0x40>
   1400029ea:	48 89 f2             	mov    %rsi,%rdx
   1400029ed:	48 89 e9             	mov    %rbp,%rcx
   1400029f0:	e8 6b fe ff ff       	call   140002860 <_ZN13NaturalBinaryeqES_>
   1400029f5:	41 89 c5             	mov    %eax,%r13d
   1400029f8:	84 c0                	test   %al,%al
   1400029fa:	74 3c                	je     140002a38 <_ZN13NaturalBinaryleES_+0xb8>
   1400029fc:	48 8b 5c 24 20       	mov    0x20(%rsp),%rbx
   140002a01:	48 39 f3             	cmp    %rsi,%rbx
   140002a04:	74 1f                	je     140002a25 <_ZN13NaturalBinaryleES_+0xa5>
   140002a06:	66 2e 0f 1f 84 00 00 	cs nopw 0x0(%rax,%rax,1)
   140002a0d:	00 00 00 
   140002a10:	48 89 d9             	mov    %rbx,%rcx
   140002a13:	48 8b 1b             	mov    (%rbx),%rbx
   140002a16:	ba 18 00 00 00       	mov    $0x18,%edx
   140002a1b:	e8 f0 37 00 00       	call   140006210 <_ZdlPvy>
   140002a20:	48 39 f3             	cmp    %rsi,%rbx
   140002a23:	75 eb                	jne    140002a10 <_ZN13NaturalBinaryleES_+0x90>
   140002a25:	44 89 e8             	mov    %r13d,%eax
   140002a28:	48 83 c4 68          	add    $0x68,%rsp
   140002a2c:	5b                   	pop    %rbx
   140002a2d:	5e                   	pop    %rsi
   140002a2e:	5f                   	pop    %rdi
   140002a2f:	5d                   	pop    %rbp
   140002a30:	41 5c                	pop    %r12
   140002a32:	41 5d                	pop    %r13
   140002a34:	c3                   	ret
   140002a35:	0f 1f 00             	nopl   (%rax)
   140002a38:	4c 8d 64 24 40       	lea    0x40(%rsp),%r12
   140002a3d:	48 8b 1f             	mov    (%rdi),%rbx
   140002a40:	48 c7 44 24 50 00 00 	movq   $0x0,0x50(%rsp)
   140002a47:	00 00 
   140002a49:	66 49 0f 6e c4       	movq   %r12,%xmm0
   140002a4e:	66 0f 6c c0          	punpcklqdq %xmm0,%xmm0
   140002a52:	0f 11 44 24 40       	movups %xmm0,0x40(%rsp)
   140002a57:	48 39 df             	cmp    %rbx,%rdi
   140002a5a:	74 6e                	je     140002aca <_ZN13NaturalBinaryleES_+0x14a>
   140002a5c:	0f 1f 40 00          	nopl   0x0(%rax)
   140002a60:	b9 18 00 00 00       	mov    $0x18,%ecx
   140002a65:	e8 9e 37 00 00       	call   140006208 <_Znwy>
   140002a6a:	48 89 c1             	mov    %rax,%rcx
   140002a6d:	0f b6 43 10          	movzbl 0x10(%rbx),%eax
   140002a71:	4c 89 e2             	mov    %r12,%rdx
   140002a74:	88 41 10             	mov    %al,0x10(%rcx)
   140002a77:	e8 ec 37 00 00       	call   140006268 <_ZNSt8__detail15_List_node_base7_M_hookEPS0_>
   140002a7c:	48 8b 1b             	mov    (%rbx),%rbx
   140002a7f:	48 83 44 24 50 01    	addq   $0x1,0x50(%rsp)
   140002a85:	48 39 df             	cmp    %rbx,%rdi
   140002a88:	75 d6                	jne    140002a60 <_ZN13NaturalBinaryleES_+0xe0>
   140002a8a:	4c 89 e2             	mov    %r12,%rdx
   140002a8d:	48 89 e9             	mov    %rbp,%rcx
   140002a90:	e8 7b fa ff ff       	call   140002510 <_ZN13NaturalBinaryltES_>
   140002a95:	48 8b 5c 24 40       	mov    0x40(%rsp),%rbx
   140002a9a:	41 89 c5             	mov    %eax,%r13d
   140002a9d:	4c 39 e3             	cmp    %r12,%rbx
   140002aa0:	0f 84 56 ff ff ff    	je     1400029fc <_ZN13NaturalBinaryleES_+0x7c>
   140002aa6:	66 2e 0f 1f 84 00 00 	cs nopw 0x0(%rax,%rax,1)
   140002aad:	00 00 00 
   140002ab0:	48 89 d9             	mov    %rbx,%rcx
   140002ab3:	48 8b 1b             	mov    (%rbx),%rbx
   140002ab6:	ba 18 00 00 00       	mov    $0x18,%edx
   140002abb:	e8 50 37 00 00       	call   140006210 <_ZdlPvy>
   140002ac0:	4c 39 e3             	cmp    %r12,%rbx
   140002ac3:	75 eb                	jne    140002ab0 <_ZN13NaturalBinaryleES_+0x130>
   140002ac5:	e9 32 ff ff ff       	jmp    1400029fc <_ZN13NaturalBinaryleES_+0x7c>
   140002aca:	4c 89 e2             	mov    %r12,%rdx
   140002acd:	48 89 e9             	mov    %rbp,%rcx
   140002ad0:	e8 3b fa ff ff       	call   140002510 <_ZN13NaturalBinaryltES_>
   140002ad5:	41 89 c5             	mov    %eax,%r13d
   140002ad8:	e9 1f ff ff ff       	jmp    1400029fc <_ZN13NaturalBinaryleES_+0x7c>
   140002add:	48 8b 4c 24 20       	mov    0x20(%rsp),%rcx
   140002ae2:	48 89 c3             	mov    %rax,%rbx
   140002ae5:	48 39 f1             	cmp    %rsi,%rcx
   140002ae8:	74 3b                	je     140002b25 <_ZN13NaturalBinaryleES_+0x1a5>
   140002aea:	48 8b 39             	mov    (%rcx),%rdi
   140002aed:	ba 18 00 00 00       	mov    $0x18,%edx
   140002af2:	e8 19 37 00 00       	call   140006210 <_ZdlPvy>
   140002af7:	48 89 f9             	mov    %rdi,%rcx
   140002afa:	eb e9                	jmp    140002ae5 <_ZN13NaturalBinaryleES_+0x165>
   140002afc:	48 8b 4c 24 40       	mov    0x40(%rsp),%rcx
   140002b01:	48 89 c3             	mov    %rax,%rbx
   140002b04:	4c 39 e1             	cmp    %r12,%rcx
   140002b07:	74 12                	je     140002b1b <_ZN13NaturalBinaryleES_+0x19b>
   140002b09:	48 8b 39             	mov    (%rcx),%rdi
   140002b0c:	ba 18 00 00 00       	mov    $0x18,%edx
   140002b11:	e8 fa 36 00 00       	call   140006210 <_ZdlPvy>
   140002b16:	48 89 f9             	mov    %rdi,%rcx
   140002b19:	eb e9                	jmp    140002b04 <_ZN13NaturalBinaryleES_+0x184>
   140002b1b:	48 8b 4c 24 20       	mov    0x20(%rsp),%rcx
   140002b20:	48 39 f1             	cmp    %rsi,%rcx
   140002b23:	75 08                	jne    140002b2d <_ZN13NaturalBinaryleES_+0x1ad>
   140002b25:	48 89 d9             	mov    %rbx,%rcx
   140002b28:	e8 33 48 00 00       	call   140007360 <_Unwind_Resume>
   140002b2d:	48 8b 39             	mov    (%rcx),%rdi
   140002b30:	ba 18 00 00 00       	mov    $0x18,%edx
   140002b35:	e8 d6 36 00 00       	call   140006210 <_ZdlPvy>
   140002b3a:	48 89 f9             	mov    %rdi,%rcx
   140002b3d:	eb e1                	jmp    140002b20 <_ZN13NaturalBinaryleES_+0x1a0>
   140002b3f:	90                   	nop

0000000140002b40 <_ZN13NaturalBinarygeES_>:
   140002b40:	41 55                	push   %r13
   140002b42:	41 54                	push   %r12
   140002b44:	55                   	push   %rbp
   140002b45:	57                   	push   %rdi
   140002b46:	56                   	push   %rsi
   140002b47:	53                   	push   %rbx
   140002b48:	48 83 ec 68          	sub    $0x68,%rsp
   140002b4c:	48 8b 1a             	mov    (%rdx),%rbx
   140002b4f:	48 8d 74 24 20       	lea    0x20(%rsp),%rsi
   140002b54:	48 89 cd             	mov    %rcx,%rbp
   140002b57:	48 89 d7             	mov    %rdx,%rdi
   140002b5a:	48 c7 44 24 30 00 00 	movq   $0x0,0x30(%rsp)
   140002b61:	00 00 
   140002b63:	66 48 0f 6e c6       	movq   %rsi,%xmm0
   140002b68:	66 0f 6c c0          	punpcklqdq %xmm0,%xmm0
   140002b6c:	0f 11 44 24 20       	movups %xmm0,0x20(%rsp)
   140002b71:	48 39 da             	cmp    %rbx,%rdx
   140002b74:	74 34                	je     140002baa <_ZN13NaturalBinarygeES_+0x6a>
   140002b76:	66 2e 0f 1f 84 00 00 	cs nopw 0x0(%rax,%rax,1)
   140002b7d:	00 00 00 
   140002b80:	b9 18 00 00 00       	mov    $0x18,%ecx
   140002b85:	e8 7e 36 00 00       	call   140006208 <_Znwy>
   140002b8a:	48 89 c1             	mov    %rax,%rcx
   140002b8d:	0f b6 43 10          	movzbl 0x10(%rbx),%eax
   140002b91:	48 89 f2             	mov    %rsi,%rdx
   140002b94:	88 41 10             	mov    %al,0x10(%rcx)
   140002b97:	e8 cc 36 00 00       	call   140006268 <_ZNSt8__detail15_List_node_base7_M_hookEPS0_>
   140002b9c:	48 8b 1b             	mov    (%rbx),%rbx
   140002b9f:	48 83 44 24 30 01    	addq   $0x1,0x30(%rsp)
   140002ba5:	48 39 df             	cmp    %rbx,%rdi
   140002ba8:	75 d6                	jne    140002b80 <_ZN13NaturalBinarygeES_+0x40>
   140002baa:	48 89 f2             	mov    %rsi,%rdx
   140002bad:	48 89 e9             	mov    %rbp,%rcx
   140002bb0:	e8 ab fc ff ff       	call   140002860 <_ZN13NaturalBinaryeqES_>
   140002bb5:	41 89 c5             	mov    %eax,%r13d
   140002bb8:	84 c0                	test   %al,%al
   140002bba:	74 3c                	je     140002bf8 <_ZN13NaturalBinarygeES_+0xb8>
   140002bbc:	48 8b 5c 24 20       	mov    0x20(%rsp),%rbx
   140002bc1:	48 39 f3             	cmp    %rsi,%rbx
   140002bc4:	74 1f                	je     140002be5 <_ZN13NaturalBinarygeES_+0xa5>
   140002bc6:	66 2e 0f 1f 84 00 00 	cs nopw 0x0(%rax,%rax,1)
   140002bcd:	00 00 00 
   140002bd0:	48 89 d9             	mov    %rbx,%rcx
   140002bd3:	48 8b 1b             	mov    (%rbx),%rbx
   140002bd6:	ba 18 00 00 00       	mov    $0x18,%edx
   140002bdb:	e8 30 36 00 00       	call   140006210 <_ZdlPvy>
   140002be0:	48 39 f3             	cmp    %rsi,%rbx
   140002be3:	75 eb                	jne    140002bd0 <_ZN13NaturalBinarygeES_+0x90>
   140002be5:	44 89 e8             	mov    %r13d,%eax
   140002be8:	48 83 c4 68          	add    $0x68,%rsp
   140002bec:	5b                   	pop    %rbx
   140002bed:	5e                   	pop    %rsi
   140002bee:	5f                   	pop    %rdi
   140002bef:	5d                   	pop    %rbp
   140002bf0:	41 5c                	pop    %r12
   140002bf2:	41 5d                	pop    %r13
   140002bf4:	c3                   	ret
   140002bf5:	0f 1f 00             	nopl   (%rax)
   140002bf8:	4c 8d 64 24 40       	lea    0x40(%rsp),%r12
   140002bfd:	48 8b 1f             	mov    (%rdi),%rbx
   140002c00:	48 c7 44 24 50 00 00 	movq   $0x0,0x50(%rsp)
   140002c07:	00 00 
   140002c09:	66 49 0f 6e c4       	movq   %r12,%xmm0
   140002c0e:	66 0f 6c c0          	punpcklqdq %xmm0,%xmm0
   140002c12:	0f 11 44 24 40       	movups %xmm0,0x40(%rsp)
   140002c17:	48 39 df             	cmp    %rbx,%rdi
   140002c1a:	74 6e                	je     140002c8a <_ZN13NaturalBinarygeES_+0x14a>
   140002c1c:	0f 1f 40 00          	nopl   0x0(%rax)
   140002c20:	b9 18 00 00 00       	mov    $0x18,%ecx
   140002c25:	e8 de 35 00 00       	call   140006208 <_Znwy>
   140002c2a:	48 89 c1             	mov    %rax,%rcx
   140002c2d:	0f b6 43 10          	movzbl 0x10(%rbx),%eax
   140002c31:	4c 89 e2             	mov    %r12,%rdx
   140002c34:	88 41 10             	mov    %al,0x10(%rcx)
   140002c37:	e8 2c 36 00 00       	call   140006268 <_ZNSt8__detail15_List_node_base7_M_hookEPS0_>
   140002c3c:	48 8b 1b             	mov    (%rbx),%rbx
   140002c3f:	48 83 44 24 50 01    	addq   $0x1,0x50(%rsp)
   140002c45:	48 39 df             	cmp    %rbx,%rdi
   140002c48:	75 d6                	jne    140002c20 <_ZN13NaturalBinarygeES_+0xe0>
   140002c4a:	4c 89 e2             	mov    %r12,%rdx
   140002c4d:	48 89 e9             	mov    %rbp,%rcx
   140002c50:	e8 5b fa ff ff       	call   1400026b0 <_ZN13NaturalBinarygtES_>
   140002c55:	48 8b 5c 24 40       	mov    0x40(%rsp),%rbx
   140002c5a:	41 89 c5             	mov    %eax,%r13d
   140002c5d:	4c 39 e3             	cmp    %r12,%rbx
   140002c60:	0f 84 56 ff ff ff    	je     140002bbc <_ZN13NaturalBinarygeES_+0x7c>
   140002c66:	66 2e 0f 1f 84 00 00 	cs nopw 0x0(%rax,%rax,1)
   140002c6d:	00 00 00 
   140002c70:	48 89 d9             	mov    %rbx,%rcx
   140002c73:	48 8b 1b             	mov    (%rbx),%rbx
   140002c76:	ba 18 00 00 00       	mov    $0x18,%edx
   140002c7b:	e8 90 35 00 00       	call   140006210 <_ZdlPvy>
   140002c80:	4c 39 e3             	cmp    %r12,%rbx
   140002c83:	75 eb                	jne    140002c70 <_ZN13NaturalBinarygeES_+0x130>
   140002c85:	e9 32 ff ff ff       	jmp    140002bbc <_ZN13NaturalBinarygeES_+0x7c>
   140002c8a:	4c 89 e2             	mov    %r12,%rdx
   140002c8d:	48 89 e9             	mov    %rbp,%rcx
   140002c90:	e8 1b fa ff ff       	call   1400026b0 <_ZN13NaturalBinarygtES_>
   140002c95:	41 89 c5             	mov    %eax,%r13d
   140002c98:	e9 1f ff ff ff       	jmp    140002bbc <_ZN13NaturalBinarygeES_+0x7c>
   140002c9d:	48 8b 4c 24 20       	mov    0x20(%rsp),%rcx
   140002ca2:	48 89 c3             	mov    %rax,%rbx
   140002ca5:	48 39 f1             	cmp    %rsi,%rcx
   140002ca8:	74 3b                	je     140002ce5 <_ZN13NaturalBinarygeES_+0x1a5>
   140002caa:	48 8b 39             	mov    (%rcx),%rdi
   140002cad:	ba 18 00 00 00       	mov    $0x18,%edx
   140002cb2:	e8 59 35 00 00       	call   140006210 <_ZdlPvy>
   140002cb7:	48 89 f9             	mov    %rdi,%rcx
   140002cba:	eb e9                	jmp    140002ca5 <_ZN13NaturalBinarygeES_+0x165>
   140002cbc:	48 8b 4c 24 40       	mov    0x40(%rsp),%rcx
   140002cc1:	48 89 c3             	mov    %rax,%rbx
   140002cc4:	4c 39 e1             	cmp    %r12,%rcx
   140002cc7:	74 12                	je     140002cdb <_ZN13NaturalBinarygeES_+0x19b>
   140002cc9:	48 8b 39             	mov    (%rcx),%rdi
   140002ccc:	ba 18 00 00 00       	mov    $0x18,%edx
   140002cd1:	e8 3a 35 00 00       	call   140006210 <_ZdlPvy>
   140002cd6:	48 89 f9             	mov    %rdi,%rcx
   140002cd9:	eb e9                	jmp    140002cc4 <_ZN13NaturalBinarygeES_+0x184>
   140002cdb:	48 8b 4c 24 20       	mov    0x20(%rsp),%rcx
   140002ce0:	48 39 f1             	cmp    %rsi,%rcx
   140002ce3:	75 08                	jne    140002ced <_ZN13NaturalBinarygeES_+0x1ad>
   140002ce5:	48 89 d9             	mov    %rbx,%rcx
   140002ce8:	e8 73 46 00 00       	call   140007360 <_Unwind_Resume>
   140002ced:	48 8b 39             	mov    (%rcx),%rdi
   140002cf0:	ba 18 00 00 00       	mov    $0x18,%edx
   140002cf5:	e8 16 35 00 00       	call   140006210 <_ZdlPvy>
   140002cfa:	48 89 f9             	mov    %rdi,%rcx
   140002cfd:	eb e1                	jmp    140002ce0 <_ZN13NaturalBinarygeES_+0x1a0>
   140002cff:	90                   	nop

0000000140002d00 <_ZN13NaturalBinary8toStringB5cxx11Ev>:
   140002d00:	41 57                	push   %r15
   140002d02:	41 56                	push   %r14
   140002d04:	41 55                	push   %r13
   140002d06:	41 54                	push   %r12
   140002d08:	55                   	push   %rbp
   140002d09:	57                   	push   %rdi
   140002d0a:	56                   	push   %rsi
   140002d0b:	53                   	push   %rbx
   140002d0c:	48 81 ec 78 02 00 00 	sub    $0x278,%rsp
   140002d13:	0f 11 b4 24 50 02 00 	movups %xmm6,0x250(%rsp)
   140002d1a:	00 
   140002d1b:	0f 11 bc 24 60 02 00 	movups %xmm7,0x260(%rsp)
   140002d22:	00 
   140002d23:	48 8b 05 66 67 00 00 	mov    0x6766(%rip),%rax        # 140009490 <__fu9__ZTVNSt7__cxx1118basic_stringstreamIcSt11char_traitsIcESaIcEEE>
   140002d2a:	48 8b 1d 4f 67 00 00 	mov    0x674f(%rip),%rbx        # 140009480 <__fu8__ZTVNSt7__cxx1115basic_stringbufIcSt11char_traitsIcESaIcEEE>
   140002d31:	48 83 c0 40          	add    $0x40,%rax
   140002d35:	66 48 0f 6e f0       	movq   %rax,%xmm6
   140002d3a:	48 8d 43 10          	lea    0x10(%rbx),%rax
   140002d3e:	66 48 0f 6e c8       	movq   %rax,%xmm1
   140002d43:	48 8b 05 56 67 00 00 	mov    0x6756(%rip),%rax        # 1400094a0 <__fu7__ZTVSt15basic_streambufIcSt11char_traitsIcEE>
   140002d4a:	66 0f 6f fe          	movdqa %xmm6,%xmm7
   140002d4e:	66 0f 6c f9          	punpcklqdq %xmm1,%xmm7
   140002d52:	48 83 c0 10          	add    $0x10,%rax
   140002d56:	c6 41 10 00          	movb   $0x0,0x10(%rcx)
   140002d5a:	48 89 cf             	mov    %rcx,%rdi
   140002d5d:	49 89 d5             	mov    %rdx,%r13
   140002d60:	66 48 0f 6e d0       	movq   %rax,%xmm2
   140002d65:	48 8d 41 10          	lea    0x10(%rcx),%rax
   140002d69:	48 c7 41 08 00 00 00 	movq   $0x0,0x8(%rcx)
   140002d70:	00 
   140002d71:	4c 8d bc 24 40 01 00 	lea    0x140(%rsp),%r15
   140002d78:	00 
   140002d79:	48 89 01             	mov    %rax,(%rcx)
   140002d7c:	4c 89 f9             	mov    %r15,%rcx
   140002d7f:	66 0f 6c f2          	punpcklqdq %xmm2,%xmm6
   140002d83:	4c 8d b4 24 c0 00 00 	lea    0xc0(%rsp),%r14
   140002d8a:	00 
   140002d8b:	48 89 84 24 90 00 00 	mov    %rax,0x90(%rsp)
   140002d92:	00 
   140002d93:	4c 89 b4 24 98 00 00 	mov    %r14,0x98(%rsp)
   140002d9a:	00 
   140002d9b:	4c 89 bc 24 88 00 00 	mov    %r15,0x88(%rsp)
   140002da2:	00 
   140002da3:	e8 a0 34 00 00       	call   140006248 <_ZNSt8ios_baseC2Ev>
   140002da8:	48 8b 35 c1 66 00 00 	mov    0x66c1(%rip),%rsi        # 140009470 <__fu5__ZTTNSt7__cxx1118basic_stringstreamIcSt11char_traitsIcESaIcEEE>
   140002daf:	31 d2                	xor    %edx,%edx
   140002db1:	66 0f ef c0          	pxor   %xmm0,%xmm0
   140002db5:	48 8b 05 f4 66 00 00 	mov    0x66f4(%rip),%rax        # 1400094b0 <__fu6__ZTVSt9basic_iosIcSt11char_traitsIcEE>
   140002dbc:	66 89 94 24 20 02 00 	mov    %dx,0x220(%rsp)
   140002dc3:	00 
   140002dc4:	48 8b 56 10          	mov    0x10(%rsi),%rdx
   140002dc8:	48 8b 4e 18          	mov    0x18(%rsi),%rcx
   140002dcc:	0f 11 84 24 28 02 00 	movups %xmm0,0x228(%rsp)
   140002dd3:	00 
   140002dd4:	48 83 c0 10          	add    $0x10,%rax
   140002dd8:	0f 11 84 24 38 02 00 	movups %xmm0,0x238(%rsp)
   140002ddf:	00 
   140002de0:	48 89 84 24 40 01 00 	mov    %rax,0x140(%rsp)
   140002de7:	00 
   140002de8:	48 8b 42 e8          	mov    -0x18(%rdx),%rax
   140002dec:	48 89 94 24 c0 00 00 	mov    %rdx,0xc0(%rsp)
   140002df3:	00 
   140002df4:	48 c7 84 24 18 02 00 	movq   $0x0,0x218(%rsp)
   140002dfb:	00 00 00 00 00 
   140002e00:	48 89 8c 04 c0 00 00 	mov    %rcx,0xc0(%rsp,%rax,1)
   140002e07:	00 
   140002e08:	48 c7 84 24 c8 00 00 	movq   $0x0,0xc8(%rsp)
   140002e0f:	00 00 00 00 00 
   140002e14:	4c 03 72 e8          	add    -0x18(%rdx),%r14
   140002e18:	48 89 54 24 48       	mov    %rdx,0x48(%rsp)
   140002e1d:	31 d2                	xor    %edx,%edx
   140002e1f:	48 89 4c 24 50       	mov    %rcx,0x50(%rsp)
   140002e24:	4c 89 f1             	mov    %r14,%rcx
   140002e27:	e8 0c 34 00 00       	call   140006238 <_ZNSt9basic_iosIcSt11char_traitsIcEE4initEPSt15basic_streambufIcS1_E>
   140002e2c:	48 8b 46 20          	mov    0x20(%rsi),%rax
   140002e30:	48 8d ac 24 d0 00 00 	lea    0xd0(%rsp),%rbp
   140002e37:	00 
   140002e38:	31 d2                	xor    %edx,%edx
   140002e3a:	48 8b 48 e8          	mov    -0x18(%rax),%rcx
   140002e3e:	48 89 84 24 d0 00 00 	mov    %rax,0xd0(%rsp)
   140002e45:	00 
   140002e46:	48 89 44 24 58       	mov    %rax,0x58(%rsp)
   140002e4b:	48 8b 46 28          	mov    0x28(%rsi),%rax
   140002e4f:	48 01 e9             	add    %rbp,%rcx
   140002e52:	48 89 01             	mov    %rax,(%rcx)
   140002e55:	48 89 44 24 60       	mov    %rax,0x60(%rsp)
   140002e5a:	e8 d9 33 00 00       	call   140006238 <_ZNSt9basic_iosIcSt11char_traitsIcEE4initEPSt15basic_streambufIcS1_E>
   140002e5f:	48 8b 46 08          	mov    0x8(%rsi),%rax
   140002e63:	48 8b 76 30          	mov    0x30(%rsi),%rsi
   140002e67:	66 0f ef c0          	pxor   %xmm0,%xmm0
   140002e6b:	48 89 44 24 68       	mov    %rax,0x68(%rsp)
   140002e70:	48 8b 40 e8          	mov    -0x18(%rax),%rax
   140002e74:	48 89 74 24 70       	mov    %rsi,0x70(%rsp)
   140002e79:	48 89 b4 04 c0 00 00 	mov    %rsi,0xc0(%rsp,%rax,1)
   140002e80:	00 
   140002e81:	48 8b 05 08 66 00 00 	mov    0x6608(%rip),%rax        # 140009490 <__fu9__ZTVNSt7__cxx1118basic_stringstreamIcSt11char_traitsIcESaIcEEE>
   140002e88:	0f 11 b4 24 d0 00 00 	movups %xmm6,0xd0(%rsp)
   140002e8f:	00 
   140002e90:	48 83 c0 18          	add    $0x18,%rax
   140002e94:	0f 11 84 24 e0 00 00 	movups %xmm0,0xe0(%rsp)
   140002e9b:	00 
   140002e9c:	48 89 84 24 c0 00 00 	mov    %rax,0xc0(%rsp)
   140002ea3:	00 
   140002ea4:	48 8b 05 e5 65 00 00 	mov    0x65e5(%rip),%rax        # 140009490 <__fu9__ZTVNSt7__cxx1118basic_stringstreamIcSt11char_traitsIcESaIcEEE>
   140002eab:	0f 11 84 24 f0 00 00 	movups %xmm0,0xf0(%rsp)
   140002eb2:	00 
   140002eb3:	48 83 c0 68          	add    $0x68,%rax
   140002eb7:	0f 11 84 24 00 01 00 	movups %xmm0,0x100(%rsp)
   140002ebe:	00 
   140002ebf:	48 89 84 24 40 01 00 	mov    %rax,0x140(%rsp)
   140002ec6:	00 
   140002ec7:	48 8d 84 24 10 01 00 	lea    0x110(%rsp),%rax
   140002ece:	00 
   140002ecf:	48 89 c1             	mov    %rax,%rcx
   140002ed2:	48 89 44 24 78       	mov    %rax,0x78(%rsp)
   140002ed7:	e8 d4 33 00 00       	call   1400062b0 <_ZNSt6localeC1Ev>
   140002edc:	48 8d 43 10          	lea    0x10(%rbx),%rax
   140002ee0:	4c 89 f9             	mov    %r15,%rcx
   140002ee3:	c7 84 24 18 01 00 00 	movl   $0x18,0x118(%rsp)
   140002eea:	18 00 00 00 
   140002eee:	48 89 84 24 d8 00 00 	mov    %rax,0xd8(%rsp)
   140002ef5:	00 
   140002ef6:	48 8d 84 24 30 01 00 	lea    0x130(%rsp),%rax
   140002efd:	00 
   140002efe:	48 89 84 24 80 00 00 	mov    %rax,0x80(%rsp)
   140002f05:	00 
   140002f06:	48 89 84 24 20 01 00 	mov    %rax,0x120(%rsp)
   140002f0d:	00 
   140002f0e:	48 8d 84 24 d8 00 00 	lea    0xd8(%rsp),%rax
   140002f15:	00 
   140002f16:	48 89 c2             	mov    %rax,%rdx
   140002f19:	c6 84 24 30 01 00 00 	movb   $0x0,0x130(%rsp)
   140002f20:	00 
   140002f21:	48 c7 84 24 28 01 00 	movq   $0x0,0x128(%rsp)
   140002f28:	00 00 00 00 00 
   140002f2d:	48 89 44 24 38       	mov    %rax,0x38(%rsp)
   140002f32:	e8 01 33 00 00       	call   140006238 <_ZNSt9basic_iosIcSt11char_traitsIcEE4initEPSt15basic_streambufIcS1_E>
   140002f37:	48 8d 05 d2 45 00 00 	lea    0x45d2(%rip),%rax        # 140007510 <_ZNKSt5ctypeIcE8do_widenEc>
   140002f3e:	4c 89 ee             	mov    %r13,%rsi
   140002f41:	4c 8d a4 24 a0 00 00 	lea    0xa0(%rsp),%r12
   140002f48:	00 
   140002f49:	49 be ff ff ff ff ff 	movabs $0x3fffffffffffffff,%r14
   140002f50:	ff ff 3f 
   140002f53:	48 89 44 24 40       	mov    %rax,0x40(%rsp)
   140002f58:	4d 3b 6d 00          	cmp    0x0(%r13),%r13
   140002f5c:	0f 84 ce 04 00 00    	je     140003430 <_ZN13NaturalBinary8toStringB5cxx11Ev+0x730>
   140002f62:	66 0f 1f 44 00 00    	nopw   0x0(%rax,%rax,1)
   140002f68:	48 8b 84 24 d0 00 00 	mov    0xd0(%rsp),%rax
   140002f6f:	00 
   140002f70:	48 8b 50 e8          	mov    -0x18(%rax),%rdx
   140002f74:	48 c7 84 14 e0 00 00 	movq   $0x2,0xe0(%rsp,%rdx,1)
   140002f7b:	00 02 00 00 00 
   140002f80:	48 8b 58 e8          	mov    -0x18(%rax),%rbx
   140002f84:	48 01 eb             	add    %rbp,%rbx
   140002f87:	80 bb e1 00 00 00 00 	cmpb   $0x0,0xe1(%rbx)
   140002f8e:	48 89 da             	mov    %rbx,%rdx
   140002f91:	0f 84 b9 03 00 00    	je     140003350 <_ZN13NaturalBinary8toStringB5cxx11Ev+0x650>
   140002f97:	c6 83 e0 00 00 00 30 	movb   $0x30,0xe0(%rbx)
   140002f9e:	8b 42 18             	mov    0x18(%rdx),%eax
   140002fa1:	48 89 e9             	mov    %rbp,%rcx
   140002fa4:	83 e0 b5             	and    $0xffffffb5,%eax
   140002fa7:	83 c8 08             	or     $0x8,%eax
   140002faa:	89 42 18             	mov    %eax,0x18(%rdx)
   140002fad:	48 8b 46 08          	mov    0x8(%rsi),%rax
   140002fb1:	0f b6 50 10          	movzbl 0x10(%rax),%edx
   140002fb5:	e8 1e 33 00 00       	call   1400062d8 <_ZNSolsEi>
   140002fba:	48 8b 94 24 00 01 00 	mov    0x100(%rsp),%rdx
   140002fc1:	00 
   140002fc2:	48 8d 9c 24 b0 00 00 	lea    0xb0(%rsp),%rbx
   140002fc9:	00 
   140002fca:	4d 89 e7             	mov    %r12,%r15
   140002fcd:	48 c7 84 24 a8 00 00 	movq   $0x0,0xa8(%rsp)
   140002fd4:	00 00 00 00 00 
   140002fd9:	48 89 9c 24 a0 00 00 	mov    %rbx,0xa0(%rsp)
   140002fe0:	00 
   140002fe1:	c6 84 24 b0 00 00 00 	movb   $0x0,0xb0(%rsp)
   140002fe8:	00 
   140002fe9:	48 85 d2             	test   %rdx,%rdx
   140002fec:	0f 84 ae 03 00 00    	je     1400033a0 <_ZN13NaturalBinary8toStringB5cxx11Ev+0x6a0>
   140002ff2:	48 8b 84 24 f0 00 00 	mov    0xf0(%rsp),%rax
   140002ff9:	00 
   140002ffa:	48 85 c0             	test   %rax,%rax
   140002ffd:	0f 84 3d 03 00 00    	je     140003340 <_ZN13NaturalBinary8toStringB5cxx11Ev+0x640>
   140003003:	48 39 d0             	cmp    %rdx,%rax
   140003006:	0f 82 34 03 00 00    	jb     140003340 <_ZN13NaturalBinary8toStringB5cxx11Ev+0x640>
   14000300c:	4c 8b 8c 24 f8 00 00 	mov    0xf8(%rsp),%r9
   140003013:	00 
   140003014:	45 31 c0             	xor    %r8d,%r8d
   140003017:	31 d2                	xor    %edx,%edx
   140003019:	4c 89 e1             	mov    %r12,%rcx
   14000301c:	4c 29 c8             	sub    %r9,%rax
   14000301f:	48 89 44 24 20       	mov    %rax,0x20(%rsp)
   140003024:	e8 77 32 00 00       	call   1400062a0 <_ZNSt7__cxx1112basic_stringIcSt11char_traitsIcESaIcEE10_M_replaceEyyPKcy>
   140003029:	4c 8b 84 24 a8 00 00 	mov    0xa8(%rsp),%r8
   140003030:	00 
   140003031:	4c 89 f0             	mov    %r14,%rax
   140003034:	48 2b 47 08          	sub    0x8(%rdi),%rax
   140003038:	48 8b 94 24 a0 00 00 	mov    0xa0(%rsp),%rdx
   14000303f:	00 
   140003040:	4c 39 c0             	cmp    %r8,%rax
   140003043:	0f 82 0e 04 00 00    	jb     140003457 <_ZN13NaturalBinary8toStringB5cxx11Ev+0x757>
   140003049:	48 89 f9             	mov    %rdi,%rcx
   14000304c:	e8 3f 32 00 00       	call   140006290 <_ZNSt7__cxx1112basic_stringIcSt11char_traitsIcESaIcEE9_M_appendEPKcy>
   140003051:	48 8b 8c 24 a0 00 00 	mov    0xa0(%rsp),%rcx
   140003058:	00 
   140003059:	48 39 d9             	cmp    %rbx,%rcx
   14000305c:	74 11                	je     14000306f <_ZN13NaturalBinary8toStringB5cxx11Ev+0x36f>
   14000305e:	48 8b 84 24 b0 00 00 	mov    0xb0(%rsp),%rax
   140003065:	00 
   140003066:	48 8d 50 01          	lea    0x1(%rax),%rdx
   14000306a:	e8 a1 31 00 00       	call   140006210 <_ZdlPvy>
   14000306f:	48 c7 44 24 20 00 00 	movq   $0x0,0x20(%rsp)
   140003076:	00 00 
   140003078:	4c 8b 84 24 28 01 00 	mov    0x128(%rsp),%r8
   14000307f:	00 
   140003080:	49 89 d9             	mov    %rbx,%r9
   140003083:	31 d2                	xor    %edx,%edx
   140003085:	48 8d 8c 24 20 01 00 	lea    0x120(%rsp),%rcx
   14000308c:	00 
   14000308d:	48 89 9c 24 a0 00 00 	mov    %rbx,0xa0(%rsp)
   140003094:	00 
   140003095:	48 c7 84 24 a8 00 00 	movq   $0x0,0xa8(%rsp)
   14000309c:	00 00 00 00 00 
   1400030a1:	c6 84 24 b0 00 00 00 	movb   $0x0,0xb0(%rsp)
   1400030a8:	00 
   1400030a9:	e8 f2 31 00 00       	call   1400062a0 <_ZNSt7__cxx1112basic_stringIcSt11char_traitsIcESaIcEE10_M_replaceEyyPKcy>
   1400030ae:	45 31 c9             	xor    %r9d,%r9d
   1400030b1:	f6 84 24 18 01 00 00 	testb  $0x3,0x118(%rsp)
   1400030b8:	03 
   1400030b9:	74 08                	je     1400030c3 <_ZN13NaturalBinary8toStringB5cxx11Ev+0x3c3>
   1400030bb:	4c 8b 8c 24 28 01 00 	mov    0x128(%rsp),%r9
   1400030c2:	00 
   1400030c3:	48 8b 94 24 20 01 00 	mov    0x120(%rsp),%rdx
   1400030ca:	00 
   1400030cb:	48 8b 4c 24 38       	mov    0x38(%rsp),%rcx
   1400030d0:	45 31 c0             	xor    %r8d,%r8d
   1400030d3:	e8 a8 31 00 00       	call   140006280 <_ZNSt7__cxx1115basic_stringbufIcSt11char_traitsIcESaIcEE7_M_syncEPcyy>
   1400030d8:	48 8b 8c 24 a0 00 00 	mov    0xa0(%rsp),%rcx
   1400030df:	00 
   1400030e0:	48 39 d9             	cmp    %rbx,%rcx
   1400030e3:	0f 84 3f 02 00 00    	je     140003328 <_ZN13NaturalBinary8toStringB5cxx11Ev+0x628>
   1400030e9:	48 8b 84 24 b0 00 00 	mov    0xb0(%rsp),%rax
   1400030f0:	00 
   1400030f1:	48 8d 50 01          	lea    0x1(%rax),%rdx
   1400030f5:	e8 16 31 00 00       	call   140006210 <_ZdlPvy>
   1400030fa:	48 8b 76 08          	mov    0x8(%rsi),%rsi
   1400030fe:	49 39 75 00          	cmp    %rsi,0x0(%r13)
   140003102:	0f 85 60 fe ff ff    	jne    140002f68 <_ZN13NaturalBinary8toStringB5cxx11Ev+0x268>
   140003108:	48 8b 47 08          	mov    0x8(%rdi),%rax
   14000310c:	4c 89 f9             	mov    %r15,%rcx
   14000310f:	48 89 9c 24 a0 00 00 	mov    %rbx,0xa0(%rsp)
   140003116:	00 
   140003117:	48 c7 84 24 a8 00 00 	movq   $0x0,0xa8(%rsp)
   14000311e:	00 00 00 00 00 
   140003123:	48 8d 50 02          	lea    0x2(%rax),%rdx
   140003127:	c6 84 24 b0 00 00 00 	movb   $0x0,0xb0(%rsp)
   14000312e:	00 
   14000312f:	e8 64 31 00 00       	call   140006298 <_ZNSt7__cxx1112basic_stringIcSt11char_traitsIcESaIcEE7reserveEy>
   140003134:	48 b8 ff ff ff ff ff 	movabs $0x3fffffffffffffff,%rax
   14000313b:	ff ff 3f 
   14000313e:	48 2b 84 24 a8 00 00 	sub    0xa8(%rsp),%rax
   140003145:	00 
   140003146:	48 83 f8 01          	cmp    $0x1,%rax
   14000314a:	0f 86 18 03 00 00    	jbe    140003468 <_ZN13NaturalBinary8toStringB5cxx11Ev+0x768>
   140003150:	41 b8 02 00 00 00    	mov    $0x2,%r8d
   140003156:	48 8d 15 e8 5e 00 00 	lea    0x5ee8(%rip),%rdx        # 140009045 <.rdata+0x15>
   14000315d:	4c 89 f9             	mov    %r15,%rcx
   140003160:	e8 2b 31 00 00       	call   140006290 <_ZNSt7__cxx1112basic_stringIcSt11char_traitsIcESaIcEE9_M_appendEPKcy>
   140003165:	4c 8b 47 08          	mov    0x8(%rdi),%r8
   140003169:	48 8b 17             	mov    (%rdi),%rdx
   14000316c:	48 b8 ff ff ff ff ff 	movabs $0x3fffffffffffffff,%rax
   140003173:	ff ff 3f 
   140003176:	48 2b 84 24 a8 00 00 	sub    0xa8(%rsp),%rax
   14000317d:	00 
   14000317e:	4c 39 c0             	cmp    %r8,%rax
   140003181:	0f 82 ed 02 00 00    	jb     140003474 <_ZN13NaturalBinary8toStringB5cxx11Ev+0x774>
   140003187:	4c 89 f9             	mov    %r15,%rcx
   14000318a:	e8 01 31 00 00       	call   140006290 <_ZNSt7__cxx1112basic_stringIcSt11char_traitsIcESaIcEE9_M_appendEPKcy>
   14000318f:	48 8b 84 24 a0 00 00 	mov    0xa0(%rsp),%rax
   140003196:	00 
   140003197:	48 8b 0f             	mov    (%rdi),%rcx
   14000319a:	48 39 d8             	cmp    %rbx,%rax
   14000319d:	0f 84 3d 02 00 00    	je     1400033e0 <_ZN13NaturalBinary8toStringB5cxx11Ev+0x6e0>
   1400031a3:	48 39 8c 24 90 00 00 	cmp    %rcx,0x90(%rsp)
   1400031aa:	00 
   1400031ab:	0f 84 07 02 00 00    	je     1400033b8 <_ZN13NaturalBinary8toStringB5cxx11Ev+0x6b8>
   1400031b1:	f3 0f 6f 9c 24 a8 00 	movdqu 0xa8(%rsp),%xmm3
   1400031b8:	00 00 
   1400031ba:	48 8b 57 10          	mov    0x10(%rdi),%rdx
   1400031be:	48 89 07             	mov    %rax,(%rdi)
   1400031c1:	0f 11 5f 08          	movups %xmm3,0x8(%rdi)
   1400031c5:	48 85 c9             	test   %rcx,%rcx
   1400031c8:	0f 84 fa 01 00 00    	je     1400033c8 <_ZN13NaturalBinary8toStringB5cxx11Ev+0x6c8>
   1400031ce:	48 89 8c 24 a0 00 00 	mov    %rcx,0xa0(%rsp)
   1400031d5:	00 
   1400031d6:	48 89 94 24 b0 00 00 	mov    %rdx,0xb0(%rsp)
   1400031dd:	00 
   1400031de:	48 c7 84 24 a8 00 00 	movq   $0x0,0xa8(%rsp)
   1400031e5:	00 00 00 00 00 
   1400031ea:	c6 01 00             	movb   $0x0,(%rcx)
   1400031ed:	48 8b 8c 24 a0 00 00 	mov    0xa0(%rsp),%rcx
   1400031f4:	00 
   1400031f5:	48 39 d9             	cmp    %rbx,%rcx
   1400031f8:	74 11                	je     14000320b <_ZN13NaturalBinary8toStringB5cxx11Ev+0x50b>
   1400031fa:	48 8b 84 24 b0 00 00 	mov    0xb0(%rsp),%rax
   140003201:	00 
   140003202:	48 8d 50 01          	lea    0x1(%rax),%rdx
   140003206:	e8 05 30 00 00       	call   140006210 <_ZdlPvy>
   14000320b:	48 8b 05 7e 62 00 00 	mov    0x627e(%rip),%rax        # 140009490 <__fu9__ZTVNSt7__cxx1118basic_stringstreamIcSt11char_traitsIcESaIcEEE>
   140003212:	48 8b 8c 24 20 01 00 	mov    0x120(%rsp),%rcx
   140003219:	00 
   14000321a:	0f 11 bc 24 d0 00 00 	movups %xmm7,0xd0(%rsp)
   140003221:	00 
   140003222:	48 83 c0 18          	add    $0x18,%rax
   140003226:	48 89 84 24 c0 00 00 	mov    %rax,0xc0(%rsp)
   14000322d:	00 
   14000322e:	48 8b 05 5b 62 00 00 	mov    0x625b(%rip),%rax        # 140009490 <__fu9__ZTVNSt7__cxx1118basic_stringstreamIcSt11char_traitsIcESaIcEEE>
   140003235:	48 83 c0 68          	add    $0x68,%rax
   140003239:	48 89 84 24 40 01 00 	mov    %rax,0x140(%rsp)
   140003240:	00 
   140003241:	48 8b 84 24 80 00 00 	mov    0x80(%rsp),%rax
   140003248:	00 
   140003249:	48 39 c1             	cmp    %rax,%rcx
   14000324c:	74 11                	je     14000325f <_ZN13NaturalBinary8toStringB5cxx11Ev+0x55f>
   14000324e:	48 8b 84 24 30 01 00 	mov    0x130(%rsp),%rax
   140003255:	00 
   140003256:	48 8d 50 01          	lea    0x1(%rax),%rdx
   14000325a:	e8 b1 2f 00 00       	call   140006210 <_ZdlPvy>
   14000325f:	48 8b 05 3a 62 00 00 	mov    0x623a(%rip),%rax        # 1400094a0 <__fu7__ZTVSt15basic_streambufIcSt11char_traitsIcEE>
   140003266:	48 8b 4c 24 78       	mov    0x78(%rsp),%rcx
   14000326b:	48 83 c0 10          	add    $0x10,%rax
   14000326f:	48 89 84 24 d8 00 00 	mov    %rax,0xd8(%rsp)
   140003276:	00 
   140003277:	e8 2c 30 00 00       	call   1400062a8 <_ZNSt6localeD1Ev>
   14000327c:	48 8b 44 24 68       	mov    0x68(%rsp),%rax
   140003281:	48 8b 74 24 70       	mov    0x70(%rsp),%rsi
   140003286:	48 8b 8c 24 88 00 00 	mov    0x88(%rsp),%rcx
   14000328d:	00 
   14000328e:	48 8b 40 e8          	mov    -0x18(%rax),%rax
   140003292:	48 89 b4 04 c0 00 00 	mov    %rsi,0xc0(%rsp,%rax,1)
   140003299:	00 
   14000329a:	48 8b 44 24 58       	mov    0x58(%rsp),%rax
   14000329f:	48 8b 74 24 60       	mov    0x60(%rsp),%rsi
   1400032a4:	48 89 84 24 d0 00 00 	mov    %rax,0xd0(%rsp)
   1400032ab:	00 
   1400032ac:	48 8b 40 e8          	mov    -0x18(%rax),%rax
   1400032b0:	48 89 b4 04 d0 00 00 	mov    %rsi,0xd0(%rsp,%rax,1)
   1400032b7:	00 
   1400032b8:	48 8b 44 24 48       	mov    0x48(%rsp),%rax
   1400032bd:	48 8b 74 24 50       	mov    0x50(%rsp),%rsi
   1400032c2:	48 89 84 24 c0 00 00 	mov    %rax,0xc0(%rsp)
   1400032c9:	00 
   1400032ca:	48 8b 40 e8          	mov    -0x18(%rax),%rax
   1400032ce:	48 89 b4 04 c0 00 00 	mov    %rsi,0xc0(%rsp,%rax,1)
   1400032d5:	00 
   1400032d6:	48 8b 05 d3 61 00 00 	mov    0x61d3(%rip),%rax        # 1400094b0 <__fu6__ZTVSt9basic_iosIcSt11char_traitsIcEE>
   1400032dd:	48 c7 84 24 c8 00 00 	movq   $0x0,0xc8(%rsp)
   1400032e4:	00 00 00 00 00 
   1400032e9:	48 83 c0 10          	add    $0x10,%rax
   1400032ed:	48 89 84 24 40 01 00 	mov    %rax,0x140(%rsp)
   1400032f4:	00 
   1400032f5:	e8 46 2f 00 00       	call   140006240 <_ZNSt8ios_baseD2Ev>
   1400032fa:	90                   	nop
   1400032fb:	0f 10 b4 24 50 02 00 	movups 0x250(%rsp),%xmm6
   140003302:	00 
   140003303:	0f 10 bc 24 60 02 00 	movups 0x260(%rsp),%xmm7
   14000330a:	00 
   14000330b:	48 89 f8             	mov    %rdi,%rax
   14000330e:	48 81 c4 78 02 00 00 	add    $0x278,%rsp
   140003315:	5b                   	pop    %rbx
   140003316:	5e                   	pop    %rsi
   140003317:	5f                   	pop    %rdi
   140003318:	5d                   	pop    %rbp
   140003319:	41 5c                	pop    %r12
   14000331b:	41 5d                	pop    %r13
   14000331d:	41 5e                	pop    %r14
   14000331f:	41 5f                	pop    %r15
   140003321:	c3                   	ret
   140003322:	66 0f 1f 44 00 00    	nopw   0x0(%rax,%rax,1)
   140003328:	48 8b 76 08          	mov    0x8(%rsi),%rsi
   14000332c:	49 3b 75 00          	cmp    0x0(%r13),%rsi
   140003330:	0f 85 32 fc ff ff    	jne    140002f68 <_ZN13NaturalBinary8toStringB5cxx11Ev+0x268>
   140003336:	e9 cd fd ff ff       	jmp    140003108 <_ZN13NaturalBinary8toStringB5cxx11Ev+0x408>
   14000333b:	0f 1f 44 00 00       	nopl   0x0(%rax,%rax,1)
   140003340:	48 89 d0             	mov    %rdx,%rax
   140003343:	e9 c4 fc ff ff       	jmp    14000300c <_ZN13NaturalBinary8toStringB5cxx11Ev+0x30c>
   140003348:	0f 1f 84 00 00 00 00 	nopl   0x0(%rax,%rax,1)
   14000334f:	00 
   140003350:	4c 8b bb f0 00 00 00 	mov    0xf0(%rbx),%r15
   140003357:	4d 85 ff             	test   %r15,%r15
   14000335a:	0f 84 03 01 00 00    	je     140003463 <_ZN13NaturalBinary8toStringB5cxx11Ev+0x763>
   140003360:	41 80 7f 38 00       	cmpb   $0x0,0x38(%r15)
   140003365:	75 2c                	jne    140003393 <_ZN13NaturalBinary8toStringB5cxx11Ev+0x693>
   140003367:	4c 89 f9             	mov    %r15,%rcx
   14000336a:	e8 81 2f 00 00       	call   1400062f0 <_ZNKSt5ctypeIcE13_M_widen_initEv>
   14000336f:	49 8b 07             	mov    (%r15),%rax
   140003372:	48 8b 4c 24 40       	mov    0x40(%rsp),%rcx
   140003377:	48 8b 40 30          	mov    0x30(%rax),%rax
   14000337b:	48 39 c8             	cmp    %rcx,%rax
   14000337e:	0f 85 9c 00 00 00    	jne    140003420 <_ZN13NaturalBinary8toStringB5cxx11Ev+0x720>
   140003384:	48 8b 84 24 d0 00 00 	mov    0xd0(%rsp),%rax
   14000338b:	00 
   14000338c:	48 8b 50 e8          	mov    -0x18(%rax),%rdx
   140003390:	48 01 ea             	add    %rbp,%rdx
   140003393:	c6 83 e1 00 00 00 01 	movb   $0x1,0xe1(%rbx)
   14000339a:	e9 f8 fb ff ff       	jmp    140002f97 <_ZN13NaturalBinary8toStringB5cxx11Ev+0x297>
   14000339f:	90                   	nop
   1400033a0:	48 8d 94 24 20 01 00 	lea    0x120(%rsp),%rdx
   1400033a7:	00 
   1400033a8:	4c 89 e1             	mov    %r12,%rcx
   1400033ab:	e8 d8 2e 00 00       	call   140006288 <_ZNSt7__cxx1112basic_stringIcSt11char_traitsIcESaIcEE9_M_assignERKS4_>
   1400033b0:	e9 74 fc ff ff       	jmp    140003029 <_ZN13NaturalBinary8toStringB5cxx11Ev+0x329>
   1400033b5:	0f 1f 00             	nopl   (%rax)
   1400033b8:	f3 0f 6f a4 24 a8 00 	movdqu 0xa8(%rsp),%xmm4
   1400033bf:	00 00 
   1400033c1:	48 89 07             	mov    %rax,(%rdi)
   1400033c4:	0f 11 67 08          	movups %xmm4,0x8(%rdi)
   1400033c8:	48 89 9c 24 a0 00 00 	mov    %rbx,0xa0(%rsp)
   1400033cf:	00 
   1400033d0:	48 8d 9c 24 b0 00 00 	lea    0xb0(%rsp),%rbx
   1400033d7:	00 
   1400033d8:	48 89 d9             	mov    %rbx,%rcx
   1400033db:	e9 fe fd ff ff       	jmp    1400031de <_ZN13NaturalBinary8toStringB5cxx11Ev+0x4de>
   1400033e0:	4c 8b 84 24 a8 00 00 	mov    0xa8(%rsp),%r8
   1400033e7:	00 
   1400033e8:	4d 85 c0             	test   %r8,%r8
   1400033eb:	74 19                	je     140003406 <_ZN13NaturalBinary8toStringB5cxx11Ev+0x706>
   1400033ed:	49 83 f8 01          	cmp    $0x1,%r8
   1400033f1:	74 4d                	je     140003440 <_ZN13NaturalBinary8toStringB5cxx11Ev+0x740>
   1400033f3:	48 89 da             	mov    %rbx,%rdx
   1400033f6:	e8 95 40 00 00       	call   140007490 <memcpy>
   1400033fb:	4c 8b 84 24 a8 00 00 	mov    0xa8(%rsp),%r8
   140003402:	00 
   140003403:	48 8b 0f             	mov    (%rdi),%rcx
   140003406:	4c 89 47 08          	mov    %r8,0x8(%rdi)
   14000340a:	42 c6 04 01 00       	movb   $0x0,(%rcx,%r8,1)
   14000340f:	48 8b 8c 24 a0 00 00 	mov    0xa0(%rsp),%rcx
   140003416:	00 
   140003417:	e9 c2 fd ff ff       	jmp    1400031de <_ZN13NaturalBinary8toStringB5cxx11Ev+0x4de>
   14000341c:	0f 1f 40 00          	nopl   0x0(%rax)
   140003420:	ba 20 00 00 00       	mov    $0x20,%edx
   140003425:	4c 89 f9             	mov    %r15,%rcx
   140003428:	ff d0                	call   *%rax
   14000342a:	e9 55 ff ff ff       	jmp    140003384 <_ZN13NaturalBinary8toStringB5cxx11Ev+0x684>
   14000342f:	90                   	nop
   140003430:	4d 89 e7             	mov    %r12,%r15
   140003433:	48 8d 9c 24 b0 00 00 	lea    0xb0(%rsp),%rbx
   14000343a:	00 
   14000343b:	e9 c8 fc ff ff       	jmp    140003108 <_ZN13NaturalBinary8toStringB5cxx11Ev+0x408>
   140003440:	0f b6 84 24 b0 00 00 	movzbl 0xb0(%rsp),%eax
   140003447:	00 
   140003448:	88 01                	mov    %al,(%rcx)
   14000344a:	4c 8b 84 24 a8 00 00 	mov    0xa8(%rsp),%r8
   140003451:	00 
   140003452:	48 8b 0f             	mov    (%rdi),%rcx
   140003455:	eb af                	jmp    140003406 <_ZN13NaturalBinary8toStringB5cxx11Ev+0x706>
   140003457:	48 8d 0d d2 5b 00 00 	lea    0x5bd2(%rip),%rcx        # 140009030 <.rdata>
   14000345e:	e8 bd 2d 00 00       	call   140006220 <_ZSt20__throw_length_errorPKc>
   140003463:	e8 c0 2d 00 00       	call   140006228 <_ZSt16__throw_bad_castv>
   140003468:	48 8d 0d c1 5b 00 00 	lea    0x5bc1(%rip),%rcx        # 140009030 <.rdata>
   14000346f:	e8 ac 2d 00 00       	call   140006220 <_ZSt20__throw_length_errorPKc>
   140003474:	48 8d 0d b5 5b 00 00 	lea    0x5bb5(%rip),%rcx        # 140009030 <.rdata>
   14000347b:	e8 a0 2d 00 00       	call   140006220 <_ZSt20__throw_length_errorPKc>
   140003480:	48 8b 8c 24 a0 00 00 	mov    0xa0(%rsp),%rcx
   140003487:	00 
   140003488:	48 89 c6             	mov    %rax,%rsi
   14000348b:	48 39 d9             	cmp    %rbx,%rcx
   14000348e:	74 11                	je     1400034a1 <_ZN13NaturalBinary8toStringB5cxx11Ev+0x7a1>
   140003490:	48 8b 84 24 b0 00 00 	mov    0xb0(%rsp),%rax
   140003497:	00 
   140003498:	48 8d 50 01          	lea    0x1(%rax),%rdx
   14000349c:	e8 6f 2d 00 00       	call   140006210 <_ZdlPvy>
   1400034a1:	48 8b 8c 24 98 00 00 	mov    0x98(%rsp),%rcx
   1400034a8:	00 
   1400034a9:	e8 ca 2d 00 00       	call   140006278 <_ZNSt7__cxx1118basic_stringstreamIcSt11char_traitsIcESaIcEED1Ev>
   1400034ae:	eb 23                	jmp    1400034d3 <_ZN13NaturalBinary8toStringB5cxx11Ev+0x7d3>
   1400034b0:	48 89 c6             	mov    %rax,%rsi
   1400034b3:	48 8b 05 f6 5f 00 00 	mov    0x5ff6(%rip),%rax        # 1400094b0 <__fu6__ZTVSt9basic_iosIcSt11char_traitsIcEE>
   1400034ba:	48 8b 8c 24 88 00 00 	mov    0x88(%rsp),%rcx
   1400034c1:	00 
   1400034c2:	48 83 c0 10          	add    $0x10,%rax
   1400034c6:	48 89 84 24 40 01 00 	mov    %rax,0x140(%rsp)
   1400034cd:	00 
   1400034ce:	e8 6d 2d 00 00       	call   140006240 <_ZNSt8ios_baseD2Ev>
   1400034d3:	48 8b 0f             	mov    (%rdi),%rcx
   1400034d6:	48 8b 84 24 90 00 00 	mov    0x90(%rsp),%rax
   1400034dd:	00 
   1400034de:	48 39 c1             	cmp    %rax,%rcx
   1400034e1:	74 0d                	je     1400034f0 <_ZN13NaturalBinary8toStringB5cxx11Ev+0x7f0>
   1400034e3:	48 8b 57 10          	mov    0x10(%rdi),%rdx
   1400034e7:	48 83 c2 01          	add    $0x1,%rdx
   1400034eb:	e8 20 2d 00 00       	call   140006210 <_ZdlPvy>
   1400034f0:	48 89 f1             	mov    %rsi,%rcx
   1400034f3:	e8 68 3e 00 00       	call   140007360 <_Unwind_Resume>
   1400034f8:	eb 86                	jmp    140003480 <_ZN13NaturalBinary8toStringB5cxx11Ev+0x780>
   1400034fa:	eb 84                	jmp    140003480 <_ZN13NaturalBinary8toStringB5cxx11Ev+0x780>
   1400034fc:	eb 82                	jmp    140003480 <_ZN13NaturalBinary8toStringB5cxx11Ev+0x780>
   1400034fe:	48 89 c6             	mov    %rax,%rsi
   140003501:	48 8b 44 24 48       	mov    0x48(%rsp),%rax
   140003506:	48 8b 5c 24 50       	mov    0x50(%rsp),%rbx
   14000350b:	48 89 84 24 c0 00 00 	mov    %rax,0xc0(%rsp)
   140003512:	00 
   140003513:	48 8b 40 e8          	mov    -0x18(%rax),%rax
   140003517:	48 89 9c 04 c0 00 00 	mov    %rbx,0xc0(%rsp,%rax,1)
   14000351e:	00 
   14000351f:	31 c0                	xor    %eax,%eax
   140003521:	48 89 84 24 c8 00 00 	mov    %rax,0xc8(%rsp)
   140003528:	00 
   140003529:	eb 88                	jmp    1400034b3 <_ZN13NaturalBinary8toStringB5cxx11Ev+0x7b3>
   14000352b:	48 89 c6             	mov    %rax,%rsi
   14000352e:	e9 6e ff ff ff       	jmp    1400034a1 <_ZN13NaturalBinary8toStringB5cxx11Ev+0x7a1>
   140003533:	48 89 c6             	mov    %rax,%rsi
   140003536:	48 8b 8c 24 20 01 00 	mov    0x120(%rsp),%rcx
   14000353d:	00 
   14000353e:	48 8b 84 24 80 00 00 	mov    0x80(%rsp),%rax
   140003545:	00 
   140003546:	48 83 c3 10          	add    $0x10,%rbx
   14000354a:	48 89 9c 24 d8 00 00 	mov    %rbx,0xd8(%rsp)
   140003551:	00 
   140003552:	48 39 c1             	cmp    %rax,%rcx
   140003555:	74 11                	je     140003568 <_ZN13NaturalBinary8toStringB5cxx11Ev+0x868>
   140003557:	48 8b 84 24 30 01 00 	mov    0x130(%rsp),%rax
   14000355e:	00 
   14000355f:	48 8d 50 01          	lea    0x1(%rax),%rdx
   140003563:	e8 a8 2c 00 00       	call   140006210 <_ZdlPvy>
   140003568:	48 8b 05 31 5f 00 00 	mov    0x5f31(%rip),%rax        # 1400094a0 <__fu7__ZTVSt15basic_streambufIcSt11char_traitsIcEE>
   14000356f:	48 8b 4c 24 78       	mov    0x78(%rsp),%rcx
   140003574:	48 83 c0 10          	add    $0x10,%rax
   140003578:	48 89 84 24 d8 00 00 	mov    %rax,0xd8(%rsp)
   14000357f:	00 
   140003580:	e8 23 2d 00 00       	call   1400062a8 <_ZNSt6localeD1Ev>
   140003585:	48 8b 44 24 68       	mov    0x68(%rsp),%rax
   14000358a:	48 8b 5c 24 70       	mov    0x70(%rsp),%rbx
   14000358f:	48 8b 40 e8          	mov    -0x18(%rax),%rax
   140003593:	48 89 9c 04 c0 00 00 	mov    %rbx,0xc0(%rsp,%rax,1)
   14000359a:	00 
   14000359b:	48 8b 44 24 58       	mov    0x58(%rsp),%rax
   1400035a0:	48 8b 5c 24 60       	mov    0x60(%rsp),%rbx
   1400035a5:	48 89 84 24 d0 00 00 	mov    %rax,0xd0(%rsp)
   1400035ac:	00 
   1400035ad:	48 8b 40 e8          	mov    -0x18(%rax),%rax
   1400035b1:	48 89 9c 04 d0 00 00 	mov    %rbx,0xd0(%rsp,%rax,1)
   1400035b8:	00 
   1400035b9:	e9 43 ff ff ff       	jmp    140003501 <_ZN13NaturalBinary8toStringB5cxx11Ev+0x801>
   1400035be:	66 90                	xchg   %ax,%ax

00000001400035c0 <_ZlsRSo13NaturalBinary>:
   1400035c0:	53                   	push   %rbx
   1400035c1:	48 83 ec 40          	sub    $0x40,%rsp
   1400035c5:	48 89 cb             	mov    %rcx,%rbx
   1400035c8:	48 8d 4c 24 20       	lea    0x20(%rsp),%rcx
   1400035cd:	e8 2e f7 ff ff       	call   140002d00 <_ZN13NaturalBinary8toStringB5cxx11Ev>
   1400035d2:	4c 8b 44 24 28       	mov    0x28(%rsp),%r8
   1400035d7:	48 8b 54 24 20       	mov    0x20(%rsp),%rdx
   1400035dc:	48 89 d9             	mov    %rbx,%rcx
   1400035df:	e8 4c 2c 00 00       	call   140006230 <_ZSt16__ostream_insertIcSt11char_traitsIcEERSt13basic_ostreamIT_T0_ES6_PKS3_x>
   1400035e4:	48 8b 4c 24 20       	mov    0x20(%rsp),%rcx
   1400035e9:	48 8d 44 24 30       	lea    0x30(%rsp),%rax
   1400035ee:	48 39 c1             	cmp    %rax,%rcx
   1400035f1:	74 0e                	je     140003601 <_ZlsRSo13NaturalBinary+0x41>
   1400035f3:	48 8b 44 24 30       	mov    0x30(%rsp),%rax
   1400035f8:	48 8d 50 01          	lea    0x1(%rax),%rdx
   1400035fc:	e8 0f 2c 00 00       	call   140006210 <_ZdlPvy>
   140003601:	48 89 d8             	mov    %rbx,%rax
   140003604:	48 83 c4 40          	add    $0x40,%rsp
   140003608:	5b                   	pop    %rbx
   140003609:	c3                   	ret
   14000360a:	48 8b 4c 24 20       	mov    0x20(%rsp),%rcx
   14000360f:	48 89 c3             	mov    %rax,%rbx
   140003612:	48 8d 44 24 30       	lea    0x30(%rsp),%rax
   140003617:	48 39 c1             	cmp    %rax,%rcx
   14000361a:	74 0e                	je     14000362a <_ZlsRSo13NaturalBinary+0x6a>
   14000361c:	48 8b 44 24 30       	mov    0x30(%rsp),%rax
   140003621:	48 8d 50 01          	lea    0x1(%rax),%rdx
   140003625:	e8 e6 2b 00 00       	call   140006210 <_ZdlPvy>
   14000362a:	48 89 d9             	mov    %rbx,%rcx
   14000362d:	e8 2e 3d 00 00       	call   140007360 <_Unwind_Resume>
   140003632:	90                   	nop
   140003633:	90                   	nop
   140003634:	66 66 2e 0f 1f 84 00 	data16 cs nopw 0x0(%rax,%rax,1)
   14000363b:	00 00 00 00 
   14000363f:	90                   	nop

0000000140003640 <_ZN13NaturalBinarymlES_>:
   140003640:	41 57                	push   %r15
   140003642:	41 56                	push   %r14
   140003644:	41 55                	push   %r13
   140003646:	41 54                	push   %r12
   140003648:	55                   	push   %rbp
   140003649:	57                   	push   %rdi
   14000364a:	56                   	push   %rsi
   14000364b:	53                   	push   %rbx
   14000364c:	48 81 ec 18 01 00 00 	sub    $0x118,%rsp
   140003653:	0f 11 b4 24 00 01 00 	movups %xmm6,0x100(%rsp)
   14000365a:	00 
   14000365b:	49 8b 18             	mov    (%r8),%rbx
   14000365e:	48 8d 74 24 60       	lea    0x60(%rsp),%rsi
   140003663:	48 89 8c 24 60 01 00 	mov    %rcx,0x160(%rsp)
   14000366a:	00 
   14000366b:	48 89 d7             	mov    %rdx,%rdi
   14000366e:	4c 89 c5             	mov    %r8,%rbp
   140003671:	48 c7 44 24 70 00 00 	movq   $0x0,0x70(%rsp)
   140003678:	00 00 
   14000367a:	66 48 0f 6e c6       	movq   %rsi,%xmm0
   14000367f:	66 0f 6c c0          	punpcklqdq %xmm0,%xmm0
   140003683:	0f 11 44 24 60       	movups %xmm0,0x60(%rsp)
   140003688:	49 39 d8             	cmp    %rbx,%r8
   14000368b:	0f 84 df 02 00 00    	je     140003970 <_ZN13NaturalBinarymlES_+0x330>
   140003691:	0f 1f 80 00 00 00 00 	nopl   0x0(%rax)
   140003698:	b9 18 00 00 00       	mov    $0x18,%ecx
   14000369d:	e8 66 2b 00 00       	call   140006208 <_Znwy>
   1400036a2:	48 89 c1             	mov    %rax,%rcx
   1400036a5:	0f b6 43 10          	movzbl 0x10(%rbx),%eax
   1400036a9:	48 89 f2             	mov    %rsi,%rdx
   1400036ac:	88 41 10             	mov    %al,0x10(%rcx)
   1400036af:	e8 b4 2b 00 00       	call   140006268 <_ZNSt8__detail15_List_node_base7_M_hookEPS0_>
   1400036b4:	48 8b 44 24 70       	mov    0x70(%rsp),%rax
   1400036b9:	48 8b 1b             	mov    (%rbx),%rbx
   1400036bc:	48 8d 50 01          	lea    0x1(%rax),%rdx
   1400036c0:	48 89 54 24 70       	mov    %rdx,0x70(%rsp)
   1400036c5:	48 39 dd             	cmp    %rbx,%rbp
   1400036c8:	75 ce                	jne    140003698 <_ZN13NaturalBinarymlES_+0x58>
   1400036ca:	48 0f af 57 10       	imul   0x10(%rdi),%rdx
   1400036cf:	66 0f ef c0          	pxor   %xmm0,%xmm0
   1400036d3:	48 c7 84 24 90 00 00 	movq   $0x0,0x90(%rsp)
   1400036da:	00 00 00 00 00 
   1400036df:	0f 11 84 24 80 00 00 	movups %xmm0,0x80(%rsp)
   1400036e6:	00 
   1400036e7:	48 85 d2             	test   %rdx,%rdx
   1400036ea:	0f 85 60 02 00 00    	jne    140003950 <_ZN13NaturalBinarymlES_+0x310>
   1400036f0:	48 c7 44 24 50 00 00 	movq   $0x0,0x50(%rsp)
   1400036f7:	00 00 
   1400036f9:	4c 8d a4 24 e0 00 00 	lea    0xe0(%rsp),%r12
   140003700:	00 
   140003701:	31 d2                	xor    %edx,%edx
   140003703:	4c 89 e1             	mov    %r12,%rcx
   140003706:	e8 75 df ff ff       	call   140001680 <_ZN4ByteC1Ey>
   14000370b:	48 8d 9c 24 c0 00 00 	lea    0xc0(%rsp),%rbx
   140003712:	00 
   140003713:	31 d2                	xor    %edx,%edx
   140003715:	48 89 d9             	mov    %rbx,%rcx
   140003718:	e8 63 df ff ff       	call   140001680 <_ZN4ByteC1Ey>
   14000371d:	48 8b 54 24 60       	mov    0x60(%rsp),%rdx
   140003722:	31 c0                	xor    %eax,%eax
   140003724:	4c 8d bc 24 a2 00 00 	lea    0xa2(%rsp),%r15
   14000372b:	00 
   14000372c:	48 89 54 24 40       	mov    %rdx,0x40(%rsp)
   140003731:	48 39 f2             	cmp    %rsi,%rdx
   140003734:	0f 84 8e 02 00 00    	je     1400039c8 <_ZN13NaturalBinarymlES_+0x388>
   14000373a:	48 8b 54 24 40       	mov    0x40(%rsp),%rdx
   14000373f:	0f b6 52 10          	movzbl 0x10(%rdx),%edx
   140003743:	88 54 24 4f          	mov    %dl,0x4f(%rsp)
   140003747:	48 8b 17             	mov    (%rdi),%rdx
   14000374a:	48 89 54 24 58       	mov    %rdx,0x58(%rsp)
   14000374f:	48 39 d7             	cmp    %rdx,%rdi
   140003752:	0f 84 40 02 00 00    	je     140003998 <_ZN13NaturalBinarymlES_+0x358>
   140003758:	48 98                	cltq
   14000375a:	48 8b 4c 24 50       	mov    0x50(%rsp),%rcx
   14000375f:	48 89 54 24 38       	mov    %rdx,0x38(%rsp)
   140003764:	66 48 0f 6e f3       	movq   %rbx,%xmm6
   140003769:	48 89 44 24 30       	mov    %rax,0x30(%rsp)
   14000376e:	48 8d 04 40          	lea    (%rax,%rax,2),%rax
   140003772:	66 0f 6c f6          	punpcklqdq %xmm6,%xmm6
   140003776:	4c 8d 2c c1          	lea    (%rcx,%rax,8),%r13
   14000377a:	48 89 d0             	mov    %rdx,%rax
   14000377d:	0f b6 48 10          	movzbl 0x10(%rax),%ecx
   140003781:	0f b6 54 24 4f       	movzbl 0x4f(%rsp),%edx
   140003786:	e8 c5 dd ff ff       	call   140001550 <_ZN10Arithmetic3mulE4ByteS0_>
   14000378b:	88 a4 24 a0 00 00 00 	mov    %ah,0xa0(%rsp)
   140003792:	48 8d ac 24 a0 00 00 	lea    0xa0(%rsp),%rbp
   140003799:	00 
   14000379a:	88 84 24 a1 00 00 00 	mov    %al,0xa1(%rsp)
   1400037a1:	48 c7 84 24 d0 00 00 	movq   $0x0,0xd0(%rsp)
   1400037a8:	00 00 00 00 00 
   1400037ad:	0f 11 b4 24 c0 00 00 	movups %xmm6,0xc0(%rsp)
   1400037b4:	00 
   1400037b5:	b9 18 00 00 00       	mov    $0x18,%ecx
   1400037ba:	e8 49 2a 00 00       	call   140006208 <_Znwy>
   1400037bf:	48 89 c1             	mov    %rax,%rcx
   1400037c2:	0f b6 45 00          	movzbl 0x0(%rbp),%eax
   1400037c6:	48 89 da             	mov    %rbx,%rdx
   1400037c9:	48 83 c5 01          	add    $0x1,%rbp
   1400037cd:	88 41 10             	mov    %al,0x10(%rcx)
   1400037d0:	e8 93 2a 00 00       	call   140006268 <_ZNSt8__detail15_List_node_base7_M_hookEPS0_>
   1400037d5:	48 83 84 24 d0 00 00 	addq   $0x1,0xd0(%rsp)
   1400037dc:	00 01 
   1400037de:	4c 39 fd             	cmp    %r15,%rbp
   1400037e1:	75 d2                	jne    1400037b5 <_ZN13NaturalBinarymlES_+0x175>
   1400037e3:	66 49 0f 6e c4       	movq   %r12,%xmm0
   1400037e8:	48 8b ac 24 c0 00 00 	mov    0xc0(%rsp),%rbp
   1400037ef:	00 
   1400037f0:	48 c7 84 24 f0 00 00 	movq   $0x0,0xf0(%rsp)
   1400037f7:	00 00 00 00 00 
   1400037fc:	66 0f 6c c0          	punpcklqdq %xmm0,%xmm0
   140003800:	0f 11 84 24 e0 00 00 	movups %xmm0,0xe0(%rsp)
   140003807:	00 
   140003808:	48 39 dd             	cmp    %rbx,%rbp
   14000380b:	0f 84 30 04 00 00    	je     140003c41 <_ZN13NaturalBinarymlES_+0x601>
   140003811:	4c 89 64 24 28       	mov    %r12,0x28(%rsp)
   140003816:	eb 15                	jmp    14000382d <_ZN13NaturalBinarymlES_+0x1ed>
   140003818:	0f 1f 84 00 00 00 00 	nopl   0x0(%rax,%rax,1)
   14000381f:	00 
   140003820:	48 8b 84 24 e0 00 00 	mov    0xe0(%rsp),%rax
   140003827:	00 
   140003828:	48 89 44 24 28       	mov    %rax,0x28(%rsp)
   14000382d:	b9 18 00 00 00       	mov    $0x18,%ecx
   140003832:	44 0f b6 75 10       	movzbl 0x10(%rbp),%r14d
   140003837:	e8 cc 29 00 00       	call   140006208 <_Znwy>
   14000383c:	44 88 70 10          	mov    %r14b,0x10(%rax)
   140003840:	48 8b 54 24 28       	mov    0x28(%rsp),%rdx
   140003845:	48 89 c1             	mov    %rax,%rcx
   140003848:	e8 1b 2a 00 00       	call   140006268 <_ZNSt8__detail15_List_node_base7_M_hookEPS0_>
   14000384d:	48 8b 6d 00          	mov    0x0(%rbp),%rbp
   140003851:	48 83 84 24 f0 00 00 	addq   $0x1,0xf0(%rsp)
   140003858:	00 01 
   14000385a:	48 39 dd             	cmp    %rbx,%rbp
   14000385d:	75 c1                	jne    140003820 <_ZN13NaturalBinarymlES_+0x1e0>
   14000385f:	4d 39 e5             	cmp    %r12,%r13
   140003862:	74 0b                	je     14000386f <_ZN13NaturalBinarymlES_+0x22f>
   140003864:	4c 89 e2             	mov    %r12,%rdx
   140003867:	4c 89 e9             	mov    %r13,%rcx
   14000386a:	e8 01 df ff ff       	call   140001770 <_ZNSt7__cxx114listI4ByteSaIS1_EEaSERKS3_.part.0>
   14000386f:	48 8b ac 24 e0 00 00 	mov    0xe0(%rsp),%rbp
   140003876:	00 
   140003877:	4c 39 e5             	cmp    %r12,%rbp
   14000387a:	74 1a                	je     140003896 <_ZN13NaturalBinarymlES_+0x256>
   14000387c:	0f 1f 40 00          	nopl   0x0(%rax)
   140003880:	48 89 e9             	mov    %rbp,%rcx
   140003883:	48 8b 6d 00          	mov    0x0(%rbp),%rbp
   140003887:	ba 18 00 00 00       	mov    $0x18,%edx
   14000388c:	e8 7f 29 00 00       	call   140006210 <_ZdlPvy>
   140003891:	4c 39 e5             	cmp    %r12,%rbp
   140003894:	75 ea                	jne    140003880 <_ZN13NaturalBinarymlES_+0x240>
   140003896:	48 8b ac 24 c0 00 00 	mov    0xc0(%rsp),%rbp
   14000389d:	00 
   14000389e:	eb 11                	jmp    1400038b1 <_ZN13NaturalBinarymlES_+0x271>
   1400038a0:	48 89 e9             	mov    %rbp,%rcx
   1400038a3:	ba 18 00 00 00       	mov    $0x18,%edx
   1400038a8:	48 8b 6d 00          	mov    0x0(%rbp),%rbp
   1400038ac:	e8 5f 29 00 00       	call   140006210 <_ZdlPvy>
   1400038b1:	48 39 dd             	cmp    %rbx,%rbp
   1400038b4:	75 ea                	jne    1400038a0 <_ZN13NaturalBinarymlES_+0x260>
   1400038b6:	48 8b 44 24 30       	mov    0x30(%rsp),%rax
   1400038bb:	31 d2                	xor    %edx,%edx
   1400038bd:	31 ed                	xor    %ebp,%ebp
   1400038bf:	48 f7 77 10          	divq   0x10(%rdi)
   1400038c3:	48 01 c2             	add    %rax,%rdx
   1400038c6:	74 52                	je     14000391a <_ZN13NaturalBinarymlES_+0x2da>
   1400038c8:	0f 1f 84 00 00 00 00 	nopl   0x0(%rax,%rax,1)
   1400038cf:	00 
   1400038d0:	31 d2                	xor    %edx,%edx
   1400038d2:	4c 89 e1             	mov    %r12,%rcx
   1400038d5:	e8 a6 dd ff ff       	call   140001680 <_ZN4ByteC1Ey>
   1400038da:	b9 18 00 00 00       	mov    $0x18,%ecx
   1400038df:	4d 8b 75 00          	mov    0x0(%r13),%r14
   1400038e3:	e8 20 29 00 00       	call   140006208 <_Znwy>
   1400038e8:	48 89 c1             	mov    %rax,%rcx
   1400038eb:	0f b6 84 24 e0 00 00 	movzbl 0xe0(%rsp),%eax
   1400038f2:	00 
   1400038f3:	4c 89 f2             	mov    %r14,%rdx
   1400038f6:	48 83 c5 01          	add    $0x1,%rbp
   1400038fa:	88 41 10             	mov    %al,0x10(%rcx)
   1400038fd:	e8 66 29 00 00       	call   140006268 <_ZNSt8__detail15_List_node_base7_M_hookEPS0_>
   140003902:	49 83 45 10 01       	addq   $0x1,0x10(%r13)
   140003907:	48 8b 44 24 30       	mov    0x30(%rsp),%rax
   14000390c:	31 d2                	xor    %edx,%edx
   14000390e:	48 f7 77 10          	divq   0x10(%rdi)
   140003912:	48 01 c2             	add    %rax,%rdx
   140003915:	48 39 d5             	cmp    %rdx,%rbp
   140003918:	72 b6                	jb     1400038d0 <_ZN13NaturalBinarymlES_+0x290>
   14000391a:	48 8b 44 24 38       	mov    0x38(%rsp),%rax
   14000391f:	49 83 c5 18          	add    $0x18,%r13
   140003923:	48 8b 10             	mov    (%rax),%rdx
   140003926:	48 8b 44 24 30       	mov    0x30(%rsp),%rax
   14000392b:	48 89 54 24 38       	mov    %rdx,0x38(%rsp)
   140003930:	48 83 c0 01          	add    $0x1,%rax
   140003934:	48 39 d7             	cmp    %rdx,%rdi
   140003937:	74 54                	je     14000398d <_ZN13NaturalBinarymlES_+0x34d>
   140003939:	48 89 44 24 30       	mov    %rax,0x30(%rsp)
   14000393e:	48 89 d0             	mov    %rdx,%rax
   140003941:	e9 37 fe ff ff       	jmp    14000377d <_ZN13NaturalBinarymlES_+0x13d>
   140003946:	66 2e 0f 1f 84 00 00 	cs nopw 0x0(%rax,%rax,1)
   14000394d:	00 00 00 
   140003950:	48 8d 8c 24 80 00 00 	lea    0x80(%rsp),%rcx
   140003957:	00 
   140003958:	e8 c3 3b 00 00       	call   140007520 <_ZNSt6vectorI13NaturalBinarySaIS0_EE17_M_default_appendEy>
   14000395d:	48 8b 84 24 80 00 00 	mov    0x80(%rsp),%rax
   140003964:	00 
   140003965:	48 89 44 24 50       	mov    %rax,0x50(%rsp)
   14000396a:	e9 8a fd ff ff       	jmp    1400036f9 <_ZN13NaturalBinarymlES_+0xb9>
   14000396f:	90                   	nop
   140003970:	48 c7 84 24 90 00 00 	movq   $0x0,0x90(%rsp)
   140003977:	00 00 00 00 00 
   14000397c:	66 0f ef c0          	pxor   %xmm0,%xmm0
   140003980:	0f 11 84 24 80 00 00 	movups %xmm0,0x80(%rsp)
   140003987:	00 
   140003988:	e9 63 fd ff ff       	jmp    1400036f0 <_ZN13NaturalBinarymlES_+0xb0>
   14000398d:	8b 44 24 30          	mov    0x30(%rsp),%eax
   140003991:	83 c0 01             	add    $0x1,%eax
   140003994:	0f 1f 40 00          	nopl   0x0(%rax)
   140003998:	48 8b 54 24 40       	mov    0x40(%rsp),%rdx
   14000399d:	48 8b 12             	mov    (%rdx),%rdx
   1400039a0:	48 89 54 24 40       	mov    %rdx,0x40(%rsp)
   1400039a5:	48 39 f2             	cmp    %rsi,%rdx
   1400039a8:	74 1e                	je     1400039c8 <_ZN13NaturalBinarymlES_+0x388>
   1400039aa:	48 8b 54 24 58       	mov    0x58(%rsp),%rdx
   1400039af:	48 39 d7             	cmp    %rdx,%rdi
   1400039b2:	0f 85 82 fd ff ff    	jne    14000373a <_ZN13NaturalBinarymlES_+0xfa>
   1400039b8:	48 8b 44 24 40       	mov    0x40(%rsp),%rax
   1400039bd:	48 8b 00             	mov    (%rax),%rax
   1400039c0:	48 39 f0             	cmp    %rsi,%rax
   1400039c3:	75 f8                	jne    1400039bd <_ZN13NaturalBinarymlES_+0x37d>
   1400039c5:	0f 1f 00             	nopl   (%rax)
   1400039c8:	48 8d ac 24 a0 00 00 	lea    0xa0(%rsp),%rbp
   1400039cf:	00 
   1400039d0:	48 8b 8c 24 60 01 00 	mov    0x160(%rsp),%rcx
   1400039d7:	00 
   1400039d8:	66 48 0f 6e f5       	movq   %rbp,%xmm6
   1400039dd:	66 0f 6c f6          	punpcklqdq %xmm6,%xmm6
   1400039e1:	e8 da de ff ff       	call   1400018c0 <_ZN13NaturalBinaryC2Ex.constprop.0>
   1400039e6:	4c 8b bc 24 88 00 00 	mov    0x88(%rsp),%r15
   1400039ed:	00 
   1400039ee:	48 8b 44 24 50       	mov    0x50(%rsp),%rax
   1400039f3:	4c 39 f8             	cmp    %r15,%rax
   1400039f6:	0f 84 e2 01 00 00    	je     140003bde <_ZN13NaturalBinarymlES_+0x59e>
   1400039fc:	49 89 c6             	mov    %rax,%r14
   1400039ff:	0f 11 b4 24 a0 00 00 	movups %xmm6,0xa0(%rsp)
   140003a06:	00 
   140003a07:	4d 8b 2e             	mov    (%r14),%r13
   140003a0a:	48 c7 84 24 b0 00 00 	movq   $0x0,0xb0(%rsp)
   140003a11:	00 00 00 00 00 
   140003a16:	4d 39 f5             	cmp    %r14,%r13
   140003a19:	0f 84 81 02 00 00    	je     140003ca0 <_ZN13NaturalBinarymlES_+0x660>
   140003a1f:	90                   	nop
   140003a20:	b9 18 00 00 00       	mov    $0x18,%ecx
   140003a25:	e8 de 27 00 00       	call   140006208 <_Znwy>
   140003a2a:	48 89 c1             	mov    %rax,%rcx
   140003a2d:	41 0f b6 45 10       	movzbl 0x10(%r13),%eax
   140003a32:	48 89 ea             	mov    %rbp,%rdx
   140003a35:	88 41 10             	mov    %al,0x10(%rcx)
   140003a38:	e8 2b 28 00 00       	call   140006268 <_ZNSt8__detail15_List_node_base7_M_hookEPS0_>
   140003a3d:	48 8b 84 24 b0 00 00 	mov    0xb0(%rsp),%rax
   140003a44:	00 
   140003a45:	4d 8b 6d 00          	mov    0x0(%r13),%r13
   140003a49:	48 8d 78 01          	lea    0x1(%rax),%rdi
   140003a4d:	48 89 bc 24 b0 00 00 	mov    %rdi,0xb0(%rsp)
   140003a54:	00 
   140003a55:	4d 39 f5             	cmp    %r14,%r13
   140003a58:	75 c6                	jne    140003a20 <_ZN13NaturalBinarymlES_+0x3e0>
   140003a5a:	48 8b 84 24 60 01 00 	mov    0x160(%rsp),%rax
   140003a61:	00 
   140003a62:	45 31 ed             	xor    %r13d,%r13d
   140003a65:	2b 78 10             	sub    0x10(%rax),%edi
   140003a68:	85 ff                	test   %edi,%edi
   140003a6a:	0f 8e df 01 00 00    	jle    140003c4f <_ZN13NaturalBinarymlES_+0x60f>
   140003a70:	31 d2                	xor    %edx,%edx
   140003a72:	4c 89 e1             	mov    %r12,%rcx
   140003a75:	e8 06 dc ff ff       	call   140001680 <_ZN4ByteC1Ey>
   140003a7a:	b9 18 00 00 00       	mov    $0x18,%ecx
   140003a7f:	e8 84 27 00 00       	call   140006208 <_Znwy>
   140003a84:	48 89 c1             	mov    %rax,%rcx
   140003a87:	0f b6 84 24 e0 00 00 	movzbl 0xe0(%rsp),%eax
   140003a8e:	00 
   140003a8f:	48 8b 94 24 60 01 00 	mov    0x160(%rsp),%rdx
   140003a96:	00 
   140003a97:	41 83 c5 01          	add    $0x1,%r13d
   140003a9b:	88 41 10             	mov    %al,0x10(%rcx)
   140003a9e:	e8 c5 27 00 00       	call   140006268 <_ZNSt8__detail15_List_node_base7_M_hookEPS0_>
   140003aa3:	48 8b 84 24 60 01 00 	mov    0x160(%rsp),%rax
   140003aaa:	00 
   140003aab:	48 83 40 10 01       	addq   $0x1,0x10(%rax)
   140003ab0:	44 39 ef             	cmp    %r13d,%edi
   140003ab3:	7f bb                	jg     140003a70 <_ZN13NaturalBinarymlES_+0x430>
   140003ab5:	66 48 0f 6e c3       	movq   %rbx,%xmm0
   140003aba:	48 8b bc 24 a0 00 00 	mov    0xa0(%rsp),%rdi
   140003ac1:	00 
   140003ac2:	48 c7 84 24 d0 00 00 	movq   $0x0,0xd0(%rsp)
   140003ac9:	00 00 00 00 00 
   140003ace:	66 0f 6c c0          	punpcklqdq %xmm0,%xmm0
   140003ad2:	0f 11 84 24 c0 00 00 	movups %xmm0,0xc0(%rsp)
   140003ad9:	00 
   140003ada:	48 39 ef             	cmp    %rbp,%rdi
   140003add:	74 2d                	je     140003b0c <_ZN13NaturalBinarymlES_+0x4cc>
   140003adf:	b9 18 00 00 00       	mov    $0x18,%ecx
   140003ae4:	e8 1f 27 00 00       	call   140006208 <_Znwy>
   140003ae9:	48 89 c1             	mov    %rax,%rcx
   140003aec:	0f b6 47 10          	movzbl 0x10(%rdi),%eax
   140003af0:	48 89 da             	mov    %rbx,%rdx
   140003af3:	88 41 10             	mov    %al,0x10(%rcx)
   140003af6:	e8 6d 27 00 00       	call   140006268 <_ZNSt8__detail15_List_node_base7_M_hookEPS0_>
   140003afb:	48 8b 3f             	mov    (%rdi),%rdi
   140003afe:	48 83 84 24 d0 00 00 	addq   $0x1,0xd0(%rsp)
   140003b05:	00 01 
   140003b07:	48 39 ef             	cmp    %rbp,%rdi
   140003b0a:	75 d3                	jne    140003adf <_ZN13NaturalBinarymlES_+0x49f>
   140003b0c:	48 8b 94 24 60 01 00 	mov    0x160(%rsp),%rdx
   140003b13:	00 
   140003b14:	49 89 d8             	mov    %rbx,%r8
   140003b17:	4c 89 e1             	mov    %r12,%rcx
   140003b1a:	e8 01 e0 ff ff       	call   140001b20 <_ZN13NaturalBinaryplES_>
   140003b1f:	48 8b 8c 24 60 01 00 	mov    0x160(%rsp),%rcx
   140003b26:	00 
   140003b27:	4c 89 e2             	mov    %r12,%rdx
   140003b2a:	e8 41 dc ff ff       	call   140001770 <_ZNSt7__cxx114listI4ByteSaIS1_EEaSERKS3_.part.0>
   140003b2f:	48 8b bc 24 e0 00 00 	mov    0xe0(%rsp),%rdi
   140003b36:	00 
   140003b37:	4c 39 e7             	cmp    %r12,%rdi
   140003b3a:	74 15                	je     140003b51 <_ZN13NaturalBinarymlES_+0x511>
   140003b3c:	48 89 f9             	mov    %rdi,%rcx
   140003b3f:	48 8b 3f             	mov    (%rdi),%rdi
   140003b42:	ba 18 00 00 00       	mov    $0x18,%edx
   140003b47:	e8 c4 26 00 00       	call   140006210 <_ZdlPvy>
   140003b4c:	4c 39 e7             	cmp    %r12,%rdi
   140003b4f:	75 eb                	jne    140003b3c <_ZN13NaturalBinarymlES_+0x4fc>
   140003b51:	48 8b bc 24 c0 00 00 	mov    0xc0(%rsp),%rdi
   140003b58:	00 
   140003b59:	48 39 df             	cmp    %rbx,%rdi
   140003b5c:	74 15                	je     140003b73 <_ZN13NaturalBinarymlES_+0x533>
   140003b5e:	48 89 f9             	mov    %rdi,%rcx
   140003b61:	48 8b 3f             	mov    (%rdi),%rdi
   140003b64:	ba 18 00 00 00       	mov    $0x18,%edx
   140003b69:	e8 a2 26 00 00       	call   140006210 <_ZdlPvy>
   140003b6e:	48 39 df             	cmp    %rbx,%rdi
   140003b71:	75 eb                	jne    140003b5e <_ZN13NaturalBinarymlES_+0x51e>
   140003b73:	48 8b bc 24 a0 00 00 	mov    0xa0(%rsp),%rdi
   140003b7a:	00 
   140003b7b:	48 39 ef             	cmp    %rbp,%rdi
   140003b7e:	74 15                	je     140003b95 <_ZN13NaturalBinarymlES_+0x555>
   140003b80:	48 89 f9             	mov    %rdi,%rcx
   140003b83:	48 8b 3f             	mov    (%rdi),%rdi
   140003b86:	ba 18 00 00 00       	mov    $0x18,%edx
   140003b8b:	e8 80 26 00 00       	call   140006210 <_ZdlPvy>
   140003b90:	48 39 ef             	cmp    %rbp,%rdi
   140003b93:	75 eb                	jne    140003b80 <_ZN13NaturalBinarymlES_+0x540>
   140003b95:	49 83 c6 18          	add    $0x18,%r14
   140003b99:	4d 39 f7             	cmp    %r14,%r15
   140003b9c:	0f 85 5d fe ff ff    	jne    1400039ff <_ZN13NaturalBinarymlES_+0x3bf>
   140003ba2:	48 8b 7c 24 50       	mov    0x50(%rsp),%rdi
   140003ba7:	66 0f 1f 84 00 00 00 	nopw   0x0(%rax,%rax,1)
   140003bae:	00 00 
   140003bb0:	48 8b 1f             	mov    (%rdi),%rbx
   140003bb3:	48 39 df             	cmp    %rbx,%rdi
   140003bb6:	74 1d                	je     140003bd5 <_ZN13NaturalBinarymlES_+0x595>
   140003bb8:	0f 1f 84 00 00 00 00 	nopl   0x0(%rax,%rax,1)
   140003bbf:	00 
   140003bc0:	48 89 d9             	mov    %rbx,%rcx
   140003bc3:	48 8b 1b             	mov    (%rbx),%rbx
   140003bc6:	ba 18 00 00 00       	mov    $0x18,%edx
   140003bcb:	e8 40 26 00 00       	call   140006210 <_ZdlPvy>
   140003bd0:	48 39 df             	cmp    %rbx,%rdi
   140003bd3:	75 eb                	jne    140003bc0 <_ZN13NaturalBinarymlES_+0x580>
   140003bd5:	48 83 c7 18          	add    $0x18,%rdi
   140003bd9:	49 39 ff             	cmp    %rdi,%r15
   140003bdc:	75 d2                	jne    140003bb0 <_ZN13NaturalBinarymlES_+0x570>
   140003bde:	48 8b 4c 24 50       	mov    0x50(%rsp),%rcx
   140003be3:	48 85 c9             	test   %rcx,%rcx
   140003be6:	74 10                	je     140003bf8 <_ZN13NaturalBinarymlES_+0x5b8>
   140003be8:	48 8b 94 24 90 00 00 	mov    0x90(%rsp),%rdx
   140003bef:	00 
   140003bf0:	48 29 ca             	sub    %rcx,%rdx
   140003bf3:	e8 18 26 00 00       	call   140006210 <_ZdlPvy>
   140003bf8:	48 8b 5c 24 60       	mov    0x60(%rsp),%rbx
   140003bfd:	48 39 f3             	cmp    %rsi,%rbx
   140003c00:	74 1b                	je     140003c1d <_ZN13NaturalBinarymlES_+0x5dd>
   140003c02:	66 0f 1f 44 00 00    	nopw   0x0(%rax,%rax,1)
   140003c08:	48 89 d9             	mov    %rbx,%rcx
   140003c0b:	48 8b 1b             	mov    (%rbx),%rbx
   140003c0e:	ba 18 00 00 00       	mov    $0x18,%edx
   140003c13:	e8 f8 25 00 00       	call   140006210 <_ZdlPvy>
   140003c18:	48 39 f3             	cmp    %rsi,%rbx
   140003c1b:	75 eb                	jne    140003c08 <_ZN13NaturalBinarymlES_+0x5c8>
   140003c1d:	48 8b 84 24 60 01 00 	mov    0x160(%rsp),%rax
   140003c24:	00 
   140003c25:	0f 10 b4 24 00 01 00 	movups 0x100(%rsp),%xmm6
   140003c2c:	00 
   140003c2d:	48 81 c4 18 01 00 00 	add    $0x118,%rsp
   140003c34:	5b                   	pop    %rbx
   140003c35:	5e                   	pop    %rsi
   140003c36:	5f                   	pop    %rdi
   140003c37:	5d                   	pop    %rbp
   140003c38:	41 5c                	pop    %r12
   140003c3a:	41 5d                	pop    %r13
   140003c3c:	41 5e                	pop    %r14
   140003c3e:	41 5f                	pop    %r15
   140003c40:	c3                   	ret
   140003c41:	4d 39 e5             	cmp    %r12,%r13
   140003c44:	0f 85 1a fc ff ff    	jne    140003864 <_ZN13NaturalBinarymlES_+0x224>
   140003c4a:	e9 67 fc ff ff       	jmp    1400038b6 <_ZN13NaturalBinarymlES_+0x276>
   140003c4f:	41 89 fd             	mov    %edi,%r13d
   140003c52:	41 f7 dd             	neg    %r13d
   140003c55:	0f 84 5a fe ff ff    	je     140003ab5 <_ZN13NaturalBinarymlES_+0x475>
   140003c5b:	31 ff                	xor    %edi,%edi
   140003c5d:	0f 1f 00             	nopl   (%rax)
   140003c60:	31 d2                	xor    %edx,%edx
   140003c62:	4c 89 e1             	mov    %r12,%rcx
   140003c65:	e8 16 da ff ff       	call   140001680 <_ZN4ByteC1Ey>
   140003c6a:	b9 18 00 00 00       	mov    $0x18,%ecx
   140003c6f:	e8 94 25 00 00       	call   140006208 <_Znwy>
   140003c74:	48 89 c1             	mov    %rax,%rcx
   140003c77:	0f b6 84 24 e0 00 00 	movzbl 0xe0(%rsp),%eax
   140003c7e:	00 
   140003c7f:	48 89 ea             	mov    %rbp,%rdx
   140003c82:	83 c7 01             	add    $0x1,%edi
   140003c85:	88 41 10             	mov    %al,0x10(%rcx)
   140003c88:	e8 db 25 00 00       	call   140006268 <_ZNSt8__detail15_List_node_base7_M_hookEPS0_>
   140003c8d:	48 83 84 24 b0 00 00 	addq   $0x1,0xb0(%rsp)
   140003c94:	00 01 
   140003c96:	41 39 fd             	cmp    %edi,%r13d
   140003c99:	7f c5                	jg     140003c60 <_ZN13NaturalBinarymlES_+0x620>
   140003c9b:	e9 15 fe ff ff       	jmp    140003ab5 <_ZN13NaturalBinarymlES_+0x475>
   140003ca0:	31 ff                	xor    %edi,%edi
   140003ca2:	e9 b3 fd ff ff       	jmp    140003a5a <_ZN13NaturalBinarymlES_+0x41a>
   140003ca7:	48 89 c3             	mov    %rax,%rbx
   140003caa:	48 8b ac 24 80 00 00 	mov    0x80(%rsp),%rbp
   140003cb1:	00 
   140003cb2:	4c 8b a4 24 88 00 00 	mov    0x88(%rsp),%r12
   140003cb9:	00 
   140003cba:	48 89 ef             	mov    %rbp,%rdi
   140003cbd:	49 39 fc             	cmp    %rdi,%r12
   140003cc0:	74 73                	je     140003d35 <_ZN13NaturalBinarymlES_+0x6f5>
   140003cc2:	48 8b 0f             	mov    (%rdi),%rcx
   140003cc5:	48 39 cf             	cmp    %rcx,%rdi
   140003cc8:	0f 84 b7 00 00 00    	je     140003d85 <_ZN13NaturalBinarymlES_+0x745>
   140003cce:	4c 8b 29             	mov    (%rcx),%r13
   140003cd1:	ba 18 00 00 00       	mov    $0x18,%edx
   140003cd6:	e8 35 25 00 00       	call   140006210 <_ZdlPvy>
   140003cdb:	4c 89 e9             	mov    %r13,%rcx
   140003cde:	eb e5                	jmp    140003cc5 <_ZN13NaturalBinarymlES_+0x685>
   140003ce0:	48 8b 8c 24 e0 00 00 	mov    0xe0(%rsp),%rcx
   140003ce7:	00 
   140003ce8:	48 89 c7             	mov    %rax,%rdi
   140003ceb:	4c 39 e1             	cmp    %r12,%rcx
   140003cee:	74 26                	je     140003d16 <_ZN13NaturalBinarymlES_+0x6d6>
   140003cf0:	48 8b 29             	mov    (%rcx),%rbp
   140003cf3:	ba 18 00 00 00       	mov    $0x18,%edx
   140003cf8:	e8 13 25 00 00       	call   140006210 <_ZdlPvy>
   140003cfd:	48 89 e9             	mov    %rbp,%rcx
   140003d00:	eb e9                	jmp    140003ceb <_ZN13NaturalBinarymlES_+0x6ab>
   140003d02:	48 8b 8c 24 e0 00 00 	mov    0xe0(%rsp),%rcx
   140003d09:	00 
   140003d0a:	48 89 c7             	mov    %rax,%rdi
   140003d0d:	4c 39 e1             	cmp    %r12,%rcx
   140003d10:	0f 85 b3 00 00 00    	jne    140003dc9 <_ZN13NaturalBinarymlES_+0x789>
   140003d16:	48 8b 8c 24 c0 00 00 	mov    0xc0(%rsp),%rcx
   140003d1d:	00 
   140003d1e:	48 39 d9             	cmp    %rbx,%rcx
   140003d21:	74 5a                	je     140003d7d <_ZN13NaturalBinarymlES_+0x73d>
   140003d23:	48 8b 29             	mov    (%rcx),%rbp
   140003d26:	ba 18 00 00 00       	mov    $0x18,%edx
   140003d2b:	e8 e0 24 00 00       	call   140006210 <_ZdlPvy>
   140003d30:	48 89 e9             	mov    %rbp,%rcx
   140003d33:	eb e9                	jmp    140003d1e <_ZN13NaturalBinarymlES_+0x6de>
   140003d35:	48 8b 94 24 90 00 00 	mov    0x90(%rsp),%rdx
   140003d3c:	00 
   140003d3d:	48 29 ea             	sub    %rbp,%rdx
   140003d40:	48 85 ed             	test   %rbp,%rbp
   140003d43:	74 08                	je     140003d4d <_ZN13NaturalBinarymlES_+0x70d>
   140003d45:	48 89 e9             	mov    %rbp,%rcx
   140003d48:	e8 c3 24 00 00       	call   140006210 <_ZdlPvy>
   140003d4d:	48 8b 4c 24 60       	mov    0x60(%rsp),%rcx
   140003d52:	48 39 f1             	cmp    %rsi,%rcx
   140003d55:	74 48                	je     140003d9f <_ZN13NaturalBinarymlES_+0x75f>
   140003d57:	48 8b 39             	mov    (%rcx),%rdi
   140003d5a:	ba 18 00 00 00       	mov    $0x18,%edx
   140003d5f:	e8 ac 24 00 00       	call   140006210 <_ZdlPvy>
   140003d64:	48 89 f9             	mov    %rdi,%rcx
   140003d67:	eb e9                	jmp    140003d52 <_ZN13NaturalBinarymlES_+0x712>
   140003d69:	48 8b 8c 24 c0 00 00 	mov    0xc0(%rsp),%rcx
   140003d70:	00 
   140003d71:	48 89 c7             	mov    %rax,%rdi
   140003d74:	48 39 d9             	cmp    %rbx,%rcx
   140003d77:	0f 85 19 01 00 00    	jne    140003e96 <_ZN13NaturalBinarymlES_+0x856>
   140003d7d:	48 89 fb             	mov    %rdi,%rbx
   140003d80:	e9 25 ff ff ff       	jmp    140003caa <_ZN13NaturalBinarymlES_+0x66a>
   140003d85:	48 83 c7 18          	add    $0x18,%rdi
   140003d89:	e9 2f ff ff ff       	jmp    140003cbd <_ZN13NaturalBinarymlES_+0x67d>
   140003d8e:	48 8b 4c 24 60       	mov    0x60(%rsp),%rcx
   140003d93:	48 89 c3             	mov    %rax,%rbx
   140003d96:	48 39 f1             	cmp    %rsi,%rcx
   140003d99:	0f 85 0c 01 00 00    	jne    140003eab <_ZN13NaturalBinarymlES_+0x86b>
   140003d9f:	48 89 d9             	mov    %rbx,%rcx
   140003da2:	e8 b9 35 00 00       	call   140007360 <_Unwind_Resume>
   140003da7:	48 8b 8c 24 e0 00 00 	mov    0xe0(%rsp),%rcx
   140003dae:	00 
   140003daf:	48 89 c7             	mov    %rax,%rdi
   140003db2:	4c 39 e1             	cmp    %r12,%rcx
   140003db5:	74 2a                	je     140003de1 <_ZN13NaturalBinarymlES_+0x7a1>
   140003db7:	4c 8b 29             	mov    (%rcx),%r13
   140003dba:	ba 18 00 00 00       	mov    $0x18,%edx
   140003dbf:	e8 4c 24 00 00       	call   140006210 <_ZdlPvy>
   140003dc4:	4c 89 e9             	mov    %r13,%rcx
   140003dc7:	eb e9                	jmp    140003db2 <_ZN13NaturalBinarymlES_+0x772>
   140003dc9:	48 8b 29             	mov    (%rcx),%rbp
   140003dcc:	ba 18 00 00 00       	mov    $0x18,%edx
   140003dd1:	e8 3a 24 00 00       	call   140006210 <_ZdlPvy>
   140003dd6:	48 89 e9             	mov    %rbp,%rcx
   140003dd9:	e9 2f ff ff ff       	jmp    140003d0d <_ZN13NaturalBinarymlES_+0x6cd>
   140003dde:	48 89 c7             	mov    %rax,%rdi
   140003de1:	48 8b 8c 24 c0 00 00 	mov    0xc0(%rsp),%rcx
   140003de8:	00 
   140003de9:	48 39 d9             	cmp    %rbx,%rcx
   140003dec:	74 34                	je     140003e22 <_ZN13NaturalBinarymlES_+0x7e2>
   140003dee:	4c 8b 21             	mov    (%rcx),%r12
   140003df1:	ba 18 00 00 00       	mov    $0x18,%edx
   140003df6:	e8 15 24 00 00       	call   140006210 <_ZdlPvy>
   140003dfb:	4c 89 e1             	mov    %r12,%rcx
   140003dfe:	eb e9                	jmp    140003de9 <_ZN13NaturalBinarymlES_+0x7a9>
   140003e00:	48 8b 8c 24 c0 00 00 	mov    0xc0(%rsp),%rcx
   140003e07:	00 
   140003e08:	48 89 c7             	mov    %rax,%rdi
   140003e0b:	48 39 d9             	cmp    %rbx,%rcx
   140003e0e:	74 12                	je     140003e22 <_ZN13NaturalBinarymlES_+0x7e2>
   140003e10:	4c 8b 21             	mov    (%rcx),%r12
   140003e13:	ba 18 00 00 00       	mov    $0x18,%edx
   140003e18:	e8 f3 23 00 00       	call   140006210 <_ZdlPvy>
   140003e1d:	4c 89 e1             	mov    %r12,%rcx
   140003e20:	eb e9                	jmp    140003e0b <_ZN13NaturalBinarymlES_+0x7cb>
   140003e22:	48 89 fb             	mov    %rdi,%rbx
   140003e25:	48 8b 8c 24 a0 00 00 	mov    0xa0(%rsp),%rcx
   140003e2c:	00 
   140003e2d:	48 39 e9             	cmp    %rbp,%rcx
   140003e30:	74 39                	je     140003e6b <_ZN13NaturalBinarymlES_+0x82b>
   140003e32:	48 8b 39             	mov    (%rcx),%rdi
   140003e35:	ba 18 00 00 00       	mov    $0x18,%edx
   140003e3a:	e8 d1 23 00 00       	call   140006210 <_ZdlPvy>
   140003e3f:	48 89 f9             	mov    %rdi,%rcx
   140003e42:	eb e9                	jmp    140003e2d <_ZN13NaturalBinarymlES_+0x7ed>
   140003e44:	48 89 c3             	mov    %rax,%rbx
   140003e47:	eb dc                	jmp    140003e25 <_ZN13NaturalBinarymlES_+0x7e5>
   140003e49:	48 8b 8c 24 a0 00 00 	mov    0xa0(%rsp),%rcx
   140003e50:	00 
   140003e51:	48 89 c3             	mov    %rax,%rbx
   140003e54:	48 39 e9             	cmp    %rbp,%rcx
   140003e57:	74 12                	je     140003e6b <_ZN13NaturalBinarymlES_+0x82b>
   140003e59:	48 8b 39             	mov    (%rcx),%rdi
   140003e5c:	ba 18 00 00 00       	mov    $0x18,%edx
   140003e61:	e8 aa 23 00 00       	call   140006210 <_ZdlPvy>
   140003e66:	48 89 f9             	mov    %rdi,%rcx
   140003e69:	eb e9                	jmp    140003e54 <_ZN13NaturalBinarymlES_+0x814>
   140003e6b:	48 8b 84 24 60 01 00 	mov    0x160(%rsp),%rax
   140003e72:	00 
   140003e73:	48 8b 08             	mov    (%rax),%rcx
   140003e76:	48 39 8c 24 60 01 00 	cmp    %rcx,0x160(%rsp)
   140003e7d:	00 
   140003e7e:	0f 84 26 fe ff ff    	je     140003caa <_ZN13NaturalBinarymlES_+0x66a>
   140003e84:	48 8b 39             	mov    (%rcx),%rdi
   140003e87:	ba 18 00 00 00       	mov    $0x18,%edx
   140003e8c:	e8 7f 23 00 00       	call   140006210 <_ZdlPvy>
   140003e91:	48 89 f9             	mov    %rdi,%rcx
   140003e94:	eb e0                	jmp    140003e76 <_ZN13NaturalBinarymlES_+0x836>
   140003e96:	48 8b 29             	mov    (%rcx),%rbp
   140003e99:	ba 18 00 00 00       	mov    $0x18,%edx
   140003e9e:	e8 6d 23 00 00       	call   140006210 <_ZdlPvy>
   140003ea3:	48 89 e9             	mov    %rbp,%rcx
   140003ea6:	e9 c9 fe ff ff       	jmp    140003d74 <_ZN13NaturalBinarymlES_+0x734>
   140003eab:	48 8b 39             	mov    (%rcx),%rdi
   140003eae:	ba 18 00 00 00       	mov    $0x18,%edx
   140003eb3:	e8 58 23 00 00       	call   140006210 <_ZdlPvy>
   140003eb8:	48 89 f9             	mov    %rdi,%rcx
   140003ebb:	e9 d6 fe ff ff       	jmp    140003d96 <_ZN13NaturalBinarymlES_+0x756>

0000000140003ec0 <_ZN13NaturalBinary12long_divsionES_PS_>:
   140003ec0:	41 57                	push   %r15
   140003ec2:	41 56                	push   %r14
   140003ec4:	41 55                	push   %r13
   140003ec6:	41 54                	push   %r12
   140003ec8:	55                   	push   %rbp
   140003ec9:	57                   	push   %rdi
   140003eca:	56                   	push   %rsi
   140003ecb:	53                   	push   %rbx
   140003ecc:	48 81 ec c8 00 00 00 	sub    $0xc8,%rsp
   140003ed3:	0f 11 b4 24 a0 00 00 	movups %xmm6,0xa0(%rsp)
   140003eda:	00 
   140003edb:	0f 11 bc 24 b0 00 00 	movups %xmm7,0xb0(%rsp)
   140003ee2:	00 
   140003ee3:	48 8d 74 24 60       	lea    0x60(%rsp),%rsi
   140003ee8:	4c 8d 64 24 20       	lea    0x20(%rsp),%r12
   140003eed:	48 89 d3             	mov    %rdx,%rbx
   140003ef0:	4c 89 c5             	mov    %r8,%rbp
   140003ef3:	48 89 8c 24 10 01 00 	mov    %rcx,0x110(%rsp)
   140003efa:	00 
   140003efb:	4c 89 cf             	mov    %r9,%rdi
   140003efe:	66 48 0f 6e f6       	movq   %rsi,%xmm6
   140003f03:	e8 b8 d9 ff ff       	call   1400018c0 <_ZN13NaturalBinaryC2Ex.constprop.0>
   140003f08:	4c 89 e1             	mov    %r12,%rcx
   140003f0b:	66 0f 6c f6          	punpcklqdq %xmm6,%xmm6
   140003f0f:	e8 ac d9 ff ff       	call   1400018c0 <_ZN13NaturalBinaryC2Ex.constprop.0>
   140003f14:	48 39 df             	cmp    %rbx,%rdi
   140003f17:	74 0b                	je     140003f24 <_ZN13NaturalBinary12long_divsionES_PS_+0x64>
   140003f19:	48 89 da             	mov    %rbx,%rdx
   140003f1c:	48 89 f9             	mov    %rdi,%rcx
   140003f1f:	e8 4c d8 ff ff       	call   140001770 <_ZNSt7__cxx114listI4ByteSaIS1_EEaSERKS3_.part.0>
   140003f24:	4c 8d 74 24 40       	lea    0x40(%rsp),%r14
   140003f29:	48 8b 45 08          	mov    0x8(%rbp),%rax
   140003f2d:	4c 89 f1             	mov    %r14,%rcx
   140003f30:	0f b6 40 10          	movzbl 0x10(%rax),%eax
   140003f34:	48 8d 50 01          	lea    0x1(%rax),%rdx
   140003f38:	e8 43 d7 ff ff       	call   140001680 <_ZN4ByteC1Ey>
   140003f3d:	48 8b 1f             	mov    (%rdi),%rbx
   140003f40:	0f 11 74 24 60       	movups %xmm6,0x60(%rsp)
   140003f45:	48 c7 44 24 70 00 00 	movq   $0x0,0x70(%rsp)
   140003f4c:	00 00 
   140003f4e:	48 39 df             	cmp    %rbx,%rdi
   140003f51:	74 2f                	je     140003f82 <_ZN13NaturalBinary12long_divsionES_PS_+0xc2>
   140003f53:	0f 1f 44 00 00       	nopl   0x0(%rax,%rax,1)
   140003f58:	b9 18 00 00 00       	mov    $0x18,%ecx
   140003f5d:	e8 a6 22 00 00       	call   140006208 <_Znwy>
   140003f62:	48 89 c1             	mov    %rax,%rcx
   140003f65:	0f b6 43 10          	movzbl 0x10(%rbx),%eax
   140003f69:	48 89 f2             	mov    %rsi,%rdx
   140003f6c:	88 41 10             	mov    %al,0x10(%rcx)
   140003f6f:	e8 f4 22 00 00       	call   140006268 <_ZNSt8__detail15_List_node_base7_M_hookEPS0_>
   140003f74:	48 8b 1b             	mov    (%rbx),%rbx
   140003f77:	48 83 44 24 70 01    	addq   $0x1,0x70(%rsp)
   140003f7d:	48 39 df             	cmp    %rbx,%rdi
   140003f80:	75 d6                	jne    140003f58 <_ZN13NaturalBinary12long_divsionES_PS_+0x98>
   140003f82:	4c 8d bc 24 80 00 00 	lea    0x80(%rsp),%r15
   140003f89:	00 
   140003f8a:	44 0f b6 44 24 40    	movzbl 0x40(%rsp),%r8d
   140003f90:	45 31 c9             	xor    %r9d,%r9d
   140003f93:	48 89 f2             	mov    %rsi,%rdx
   140003f96:	4c 89 f9             	mov    %r15,%rcx
   140003f99:	e8 c2 e1 ff ff       	call   140002160 <_ZN13NaturalBinary14divide_by_byteES_4BytePS_>
   140003f9e:	4c 89 fa             	mov    %r15,%rdx
   140003fa1:	4c 89 e1             	mov    %r12,%rcx
   140003fa4:	e8 c7 d7 ff ff       	call   140001770 <_ZNSt7__cxx114listI4ByteSaIS1_EEaSERKS3_.part.0>
   140003fa9:	48 8b 9c 24 80 00 00 	mov    0x80(%rsp),%rbx
   140003fb0:	00 
   140003fb1:	4c 39 fb             	cmp    %r15,%rbx
   140003fb4:	74 1f                	je     140003fd5 <_ZN13NaturalBinary12long_divsionES_PS_+0x115>
   140003fb6:	66 2e 0f 1f 84 00 00 	cs nopw 0x0(%rax,%rax,1)
   140003fbd:	00 00 00 
   140003fc0:	48 89 d9             	mov    %rbx,%rcx
   140003fc3:	48 8b 1b             	mov    (%rbx),%rbx
   140003fc6:	ba 18 00 00 00       	mov    $0x18,%edx
   140003fcb:	e8 40 22 00 00       	call   140006210 <_ZdlPvy>
   140003fd0:	4c 39 fb             	cmp    %r15,%rbx
   140003fd3:	75 eb                	jne    140003fc0 <_ZN13NaturalBinary12long_divsionES_PS_+0x100>
   140003fd5:	48 8b 5c 24 60       	mov    0x60(%rsp),%rbx
   140003fda:	48 39 f3             	cmp    %rsi,%rbx
   140003fdd:	74 16                	je     140003ff5 <_ZN13NaturalBinary12long_divsionES_PS_+0x135>
   140003fdf:	90                   	nop
   140003fe0:	48 89 d9             	mov    %rbx,%rcx
   140003fe3:	48 8b 1b             	mov    (%rbx),%rbx
   140003fe6:	ba 18 00 00 00       	mov    $0x18,%edx
   140003feb:	e8 20 22 00 00       	call   140006210 <_ZdlPvy>
   140003ff0:	48 39 f3             	cmp    %rsi,%rbx
   140003ff3:	75 eb                	jne    140003fe0 <_ZN13NaturalBinary12long_divsionES_PS_+0x120>
   140003ff5:	31 db                	xor    %ebx,%ebx
   140003ff7:	48 83 7d 10 01       	cmpq   $0x1,0x10(%rbp)
   140003ffc:	74 33                	je     140004031 <_ZN13NaturalBinary12long_divsionES_PS_+0x171>
   140003ffe:	66 90                	xchg   %ax,%ax
   140004000:	4c 8b 6c 24 20       	mov    0x20(%rsp),%r13
   140004005:	48 83 6c 24 30 01    	subq   $0x1,0x30(%rsp)
   14000400b:	48 83 c3 01          	add    $0x1,%rbx
   14000400f:	4c 89 e9             	mov    %r13,%rcx
   140004012:	e8 49 22 00 00       	call   140006260 <_ZNSt8__detail15_List_node_base9_M_unhookEv>
   140004017:	ba 18 00 00 00       	mov    $0x18,%edx
   14000401c:	4c 89 e9             	mov    %r13,%rcx
   14000401f:	e8 ec 21 00 00       	call   140006210 <_ZdlPvy>
   140004024:	48 8b 45 10          	mov    0x10(%rbp),%rax
   140004028:	48 83 e8 01          	sub    $0x1,%rax
   14000402c:	48 39 c3             	cmp    %rax,%rbx
   14000402f:	72 cf                	jb     140004000 <_ZN13NaturalBinary12long_divsionES_PS_+0x140>
   140004031:	48 8b 54 24 30       	mov    0x30(%rsp),%rdx
   140004036:	48 85 d2             	test   %rdx,%rdx
   140004039:	0f 84 09 03 00 00    	je     140004348 <_ZN13NaturalBinary12long_divsionES_PS_+0x488>
   14000403f:	48 8b 84 24 10 01 00 	mov    0x110(%rsp),%rax
   140004046:	00 
   140004047:	48 8b 8c 24 10 01 00 	mov    0x110(%rsp),%rcx
   14000404e:	00 
   14000404f:	66 48 0f 6e fe       	movq   %rsi,%xmm7
   140004054:	66 0f 6c ff          	punpcklqdq %xmm7,%xmm7
   140004058:	48 8b 40 10          	mov    0x10(%rax),%rax
   14000405c:	48 39 c2             	cmp    %rax,%rdx
   14000405f:	48 0f 42 d0          	cmovb  %rax,%rdx
   140004063:	e8 e8 38 00 00       	call   140007950 <_ZNSt7__cxx114listI4ByteSaIS1_EE6resizeEy>
   140004068:	48 8b 84 24 10 01 00 	mov    0x110(%rsp),%rax
   14000406f:	00 
   140004070:	4c 89 e1             	mov    %r12,%rcx
   140004073:	48 8b 50 10          	mov    0x10(%rax),%rdx
   140004077:	48 8b 44 24 30       	mov    0x30(%rsp),%rax
   14000407c:	48 39 c2             	cmp    %rax,%rdx
   14000407f:	48 0f 42 d0          	cmovb  %rax,%rdx
   140004083:	e8 c8 38 00 00       	call   140007950 <_ZNSt7__cxx114listI4ByteSaIS1_EE6resizeEy>
   140004088:	48 8b 5c 24 20       	mov    0x20(%rsp),%rbx
   14000408d:	0f 11 7c 24 60       	movups %xmm7,0x60(%rsp)
   140004092:	48 c7 44 24 70 00 00 	movq   $0x0,0x70(%rsp)
   140004099:	00 00 
   14000409b:	4c 39 e3             	cmp    %r12,%rbx
   14000409e:	74 2a                	je     1400040ca <_ZN13NaturalBinary12long_divsionES_PS_+0x20a>
   1400040a0:	b9 18 00 00 00       	mov    $0x18,%ecx
   1400040a5:	e8 5e 21 00 00       	call   140006208 <_Znwy>
   1400040aa:	48 89 c1             	mov    %rax,%rcx
   1400040ad:	0f b6 43 10          	movzbl 0x10(%rbx),%eax
   1400040b1:	48 89 f2             	mov    %rsi,%rdx
   1400040b4:	88 41 10             	mov    %al,0x10(%rcx)
   1400040b7:	e8 ac 21 00 00       	call   140006268 <_ZNSt8__detail15_List_node_base7_M_hookEPS0_>
   1400040bc:	48 8b 1b             	mov    (%rbx),%rbx
   1400040bf:	48 83 44 24 70 01    	addq   $0x1,0x70(%rsp)
   1400040c5:	4c 39 e3             	cmp    %r12,%rbx
   1400040c8:	75 d6                	jne    1400040a0 <_ZN13NaturalBinary12long_divsionES_PS_+0x1e0>
   1400040ca:	48 8b 94 24 10 01 00 	mov    0x110(%rsp),%rdx
   1400040d1:	00 
   1400040d2:	49 89 f0             	mov    %rsi,%r8
   1400040d5:	4c 89 f9             	mov    %r15,%rcx
   1400040d8:	e8 43 da ff ff       	call   140001b20 <_ZN13NaturalBinaryplES_>
   1400040dd:	48 8b 8c 24 10 01 00 	mov    0x110(%rsp),%rcx
   1400040e4:	00 
   1400040e5:	4c 89 fa             	mov    %r15,%rdx
   1400040e8:	e8 83 d6 ff ff       	call   140001770 <_ZNSt7__cxx114listI4ByteSaIS1_EEaSERKS3_.part.0>
   1400040ed:	48 8b 9c 24 80 00 00 	mov    0x80(%rsp),%rbx
   1400040f4:	00 
   1400040f5:	66 49 0f 6e fe       	movq   %r14,%xmm7
   1400040fa:	66 0f 6c ff          	punpcklqdq %xmm7,%xmm7
   1400040fe:	4c 39 fb             	cmp    %r15,%rbx
   140004101:	74 1a                	je     14000411d <_ZN13NaturalBinary12long_divsionES_PS_+0x25d>
   140004103:	0f 1f 44 00 00       	nopl   0x0(%rax,%rax,1)
   140004108:	48 89 d9             	mov    %rbx,%rcx
   14000410b:	48 8b 1b             	mov    (%rbx),%rbx
   14000410e:	ba 18 00 00 00       	mov    $0x18,%edx
   140004113:	e8 f8 20 00 00       	call   140006210 <_ZdlPvy>
   140004118:	4c 39 fb             	cmp    %r15,%rbx
   14000411b:	75 eb                	jne    140004108 <_ZN13NaturalBinary12long_divsionES_PS_+0x248>
   14000411d:	48 8b 5c 24 60       	mov    0x60(%rsp),%rbx
   140004122:	48 39 f3             	cmp    %rsi,%rbx
   140004125:	74 1e                	je     140004145 <_ZN13NaturalBinary12long_divsionES_PS_+0x285>
   140004127:	66 0f 1f 84 00 00 00 	nopw   0x0(%rax,%rax,1)
   14000412e:	00 00 
   140004130:	48 89 d9             	mov    %rbx,%rcx
   140004133:	48 8b 1b             	mov    (%rbx),%rbx
   140004136:	ba 18 00 00 00       	mov    $0x18,%edx
   14000413b:	e8 d0 20 00 00       	call   140006210 <_ZdlPvy>
   140004140:	48 39 f3             	cmp    %rsi,%rbx
   140004143:	75 eb                	jne    140004130 <_ZN13NaturalBinary12long_divsionES_PS_+0x270>
   140004145:	48 8b 5d 00          	mov    0x0(%rbp),%rbx
   140004149:	0f 11 7c 24 40       	movups %xmm7,0x40(%rsp)
   14000414e:	48 c7 44 24 50 00 00 	movq   $0x0,0x50(%rsp)
   140004155:	00 00 
   140004157:	48 39 dd             	cmp    %rbx,%rbp
   14000415a:	74 2e                	je     14000418a <_ZN13NaturalBinary12long_divsionES_PS_+0x2ca>
   14000415c:	0f 1f 40 00          	nopl   0x0(%rax)
   140004160:	b9 18 00 00 00       	mov    $0x18,%ecx
   140004165:	e8 9e 20 00 00       	call   140006208 <_Znwy>
   14000416a:	48 89 c1             	mov    %rax,%rcx
   14000416d:	0f b6 43 10          	movzbl 0x10(%rbx),%eax
   140004171:	4c 89 f2             	mov    %r14,%rdx
   140004174:	88 41 10             	mov    %al,0x10(%rcx)
   140004177:	e8 ec 20 00 00       	call   140006268 <_ZNSt8__detail15_List_node_base7_M_hookEPS0_>
   14000417c:	48 8b 1b             	mov    (%rbx),%rbx
   14000417f:	48 83 44 24 50 01    	addq   $0x1,0x50(%rsp)
   140004185:	48 39 dd             	cmp    %rbx,%rbp
   140004188:	75 d6                	jne    140004160 <_ZN13NaturalBinary12long_divsionES_PS_+0x2a0>
   14000418a:	4d 89 f0             	mov    %r14,%r8
   14000418d:	4c 89 e2             	mov    %r12,%rdx
   140004190:	48 89 f1             	mov    %rsi,%rcx
   140004193:	e8 a8 f4 ff ff       	call   140003640 <_ZN13NaturalBinarymlES_>
   140004198:	49 89 f0             	mov    %rsi,%r8
   14000419b:	48 89 fa             	mov    %rdi,%rdx
   14000419e:	4c 89 f9             	mov    %r15,%rcx
   1400041a1:	e8 9a dc ff ff       	call   140001e40 <_ZN13NaturalBinarymiES_>
   1400041a6:	4c 89 fa             	mov    %r15,%rdx
   1400041a9:	48 89 f9             	mov    %rdi,%rcx
   1400041ac:	e8 bf d5 ff ff       	call   140001770 <_ZNSt7__cxx114listI4ByteSaIS1_EEaSERKS3_.part.0>
   1400041b1:	48 8b 9c 24 80 00 00 	mov    0x80(%rsp),%rbx
   1400041b8:	00 
   1400041b9:	4c 39 fb             	cmp    %r15,%rbx
   1400041bc:	74 17                	je     1400041d5 <_ZN13NaturalBinary12long_divsionES_PS_+0x315>
   1400041be:	66 90                	xchg   %ax,%ax
   1400041c0:	48 89 d9             	mov    %rbx,%rcx
   1400041c3:	48 8b 1b             	mov    (%rbx),%rbx
   1400041c6:	ba 18 00 00 00       	mov    $0x18,%edx
   1400041cb:	e8 40 20 00 00       	call   140006210 <_ZdlPvy>
   1400041d0:	4c 39 fb             	cmp    %r15,%rbx
   1400041d3:	75 eb                	jne    1400041c0 <_ZN13NaturalBinary12long_divsionES_PS_+0x300>
   1400041d5:	48 8b 5c 24 60       	mov    0x60(%rsp),%rbx
   1400041da:	48 39 f3             	cmp    %rsi,%rbx
   1400041dd:	74 16                	je     1400041f5 <_ZN13NaturalBinary12long_divsionES_PS_+0x335>
   1400041df:	90                   	nop
   1400041e0:	48 89 d9             	mov    %rbx,%rcx
   1400041e3:	48 8b 1b             	mov    (%rbx),%rbx
   1400041e6:	ba 18 00 00 00       	mov    $0x18,%edx
   1400041eb:	e8 20 20 00 00       	call   140006210 <_ZdlPvy>
   1400041f0:	48 39 f3             	cmp    %rsi,%rbx
   1400041f3:	75 eb                	jne    1400041e0 <_ZN13NaturalBinary12long_divsionES_PS_+0x320>
   1400041f5:	48 8b 5c 24 40       	mov    0x40(%rsp),%rbx
   1400041fa:	4c 39 f3             	cmp    %r14,%rbx
   1400041fd:	74 16                	je     140004215 <_ZN13NaturalBinary12long_divsionES_PS_+0x355>
   1400041ff:	90                   	nop
   140004200:	48 89 d9             	mov    %rbx,%rcx
   140004203:	48 8b 1b             	mov    (%rbx),%rbx
   140004206:	ba 18 00 00 00       	mov    $0x18,%edx
   14000420b:	e8 00 20 00 00       	call   140006210 <_ZdlPvy>
   140004210:	4c 39 f3             	cmp    %r14,%rbx
   140004213:	75 eb                	jne    140004200 <_ZN13NaturalBinary12long_divsionES_PS_+0x340>
   140004215:	4c 89 f9             	mov    %r15,%rcx
   140004218:	e8 a3 d6 ff ff       	call   1400018c0 <_ZN13NaturalBinaryC2Ex.constprop.0>
   14000421d:	4c 89 fa             	mov    %r15,%rdx
   140004220:	4c 89 e1             	mov    %r12,%rcx
   140004223:	e8 88 e4 ff ff       	call   1400026b0 <_ZN13NaturalBinarygtES_>
   140004228:	48 8b 9c 24 80 00 00 	mov    0x80(%rsp),%rbx
   14000422f:	00 
   140004230:	41 89 c5             	mov    %eax,%r13d
   140004233:	4c 39 fb             	cmp    %r15,%rbx
   140004236:	74 1d                	je     140004255 <_ZN13NaturalBinary12long_divsionES_PS_+0x395>
   140004238:	0f 1f 84 00 00 00 00 	nopl   0x0(%rax,%rax,1)
   14000423f:	00 
   140004240:	48 89 d9             	mov    %rbx,%rcx
   140004243:	48 8b 1b             	mov    (%rbx),%rbx
   140004246:	ba 18 00 00 00       	mov    $0x18,%edx
   14000424b:	e8 c0 1f 00 00       	call   140006210 <_ZdlPvy>
   140004250:	4c 39 fb             	cmp    %r15,%rbx
   140004253:	75 eb                	jne    140004240 <_ZN13NaturalBinary12long_divsionES_PS_+0x380>
   140004255:	45 84 ed             	test   %r13b,%r13b
   140004258:	0f 85 cb fc ff ff    	jne    140003f29 <_ZN13NaturalBinary12long_divsionES_PS_+0x69>
   14000425e:	66 49 0f 6e c7       	movq   %r15,%xmm0
   140004263:	48 8b 5d 00          	mov    0x0(%rbp),%rbx
   140004267:	48 c7 84 24 90 00 00 	movq   $0x0,0x90(%rsp)
   14000426e:	00 00 00 00 00 
   140004273:	66 0f 6c c0          	punpcklqdq %xmm0,%xmm0
   140004277:	0f 11 84 24 80 00 00 	movups %xmm0,0x80(%rsp)
   14000427e:	00 
   14000427f:	48 39 dd             	cmp    %rbx,%rbp
   140004282:	74 31                	je     1400042b5 <_ZN13NaturalBinary12long_divsionES_PS_+0x3f5>
   140004284:	0f 1f 40 00          	nopl   0x0(%rax)
   140004288:	b9 18 00 00 00       	mov    $0x18,%ecx
   14000428d:	e8 76 1f 00 00       	call   140006208 <_Znwy>
   140004292:	48 89 c1             	mov    %rax,%rcx
   140004295:	0f b6 43 10          	movzbl 0x10(%rbx),%eax
   140004299:	4c 89 fa             	mov    %r15,%rdx
   14000429c:	88 41 10             	mov    %al,0x10(%rcx)
   14000429f:	e8 c4 1f 00 00       	call   140006268 <_ZNSt8__detail15_List_node_base7_M_hookEPS0_>
   1400042a4:	48 8b 1b             	mov    (%rbx),%rbx
   1400042a7:	48 83 84 24 90 00 00 	addq   $0x1,0x90(%rsp)
   1400042ae:	00 01 
   1400042b0:	48 39 dd             	cmp    %rbx,%rbp
   1400042b3:	75 d3                	jne    140004288 <_ZN13NaturalBinary12long_divsionES_PS_+0x3c8>
   1400042b5:	4c 89 fa             	mov    %r15,%rdx
   1400042b8:	48 89 f9             	mov    %rdi,%rcx
   1400042bb:	e8 80 e8 ff ff       	call   140002b40 <_ZN13NaturalBinarygeES_>
   1400042c0:	48 8b 9c 24 80 00 00 	mov    0x80(%rsp),%rbx
   1400042c7:	00 
   1400042c8:	41 89 c5             	mov    %eax,%r13d
   1400042cb:	4c 39 fb             	cmp    %r15,%rbx
   1400042ce:	74 15                	je     1400042e5 <_ZN13NaturalBinary12long_divsionES_PS_+0x425>
   1400042d0:	48 89 d9             	mov    %rbx,%rcx
   1400042d3:	48 8b 1b             	mov    (%rbx),%rbx
   1400042d6:	ba 18 00 00 00       	mov    $0x18,%edx
   1400042db:	e8 30 1f 00 00       	call   140006210 <_ZdlPvy>
   1400042e0:	4c 39 fb             	cmp    %r15,%rbx
   1400042e3:	75 eb                	jne    1400042d0 <_ZN13NaturalBinary12long_divsionES_PS_+0x410>
   1400042e5:	45 84 ed             	test   %r13b,%r13b
   1400042e8:	0f 85 97 00 00 00    	jne    140004385 <_ZN13NaturalBinary12long_divsionES_PS_+0x4c5>
   1400042ee:	48 8b 5c 24 20       	mov    0x20(%rsp),%rbx
   1400042f3:	4c 39 e3             	cmp    %r12,%rbx
   1400042f6:	74 1d                	je     140004315 <_ZN13NaturalBinary12long_divsionES_PS_+0x455>
   1400042f8:	0f 1f 84 00 00 00 00 	nopl   0x0(%rax,%rax,1)
   1400042ff:	00 
   140004300:	48 89 d9             	mov    %rbx,%rcx
   140004303:	48 8b 1b             	mov    (%rbx),%rbx
   140004306:	ba 18 00 00 00       	mov    $0x18,%edx
   14000430b:	e8 00 1f 00 00       	call   140006210 <_ZdlPvy>
   140004310:	4c 39 e3             	cmp    %r12,%rbx
   140004313:	75 eb                	jne    140004300 <_ZN13NaturalBinary12long_divsionES_PS_+0x440>
   140004315:	48 8b 84 24 10 01 00 	mov    0x110(%rsp),%rax
   14000431c:	00 
   14000431d:	0f 10 b4 24 a0 00 00 	movups 0xa0(%rsp),%xmm6
   140004324:	00 
   140004325:	0f 10 bc 24 b0 00 00 	movups 0xb0(%rsp),%xmm7
   14000432c:	00 
   14000432d:	48 81 c4 c8 00 00 00 	add    $0xc8,%rsp
   140004334:	5b                   	pop    %rbx
   140004335:	5e                   	pop    %rsi
   140004336:	5f                   	pop    %rdi
   140004337:	5d                   	pop    %rbp
   140004338:	41 5c                	pop    %r12
   14000433a:	41 5d                	pop    %r13
   14000433c:	41 5e                	pop    %r14
   14000433e:	41 5f                	pop    %r15
   140004340:	c3                   	ret
   140004341:	0f 1f 80 00 00 00 00 	nopl   0x0(%rax)
   140004348:	31 d2                	xor    %edx,%edx
   14000434a:	4c 89 f9             	mov    %r15,%rcx
   14000434d:	e8 2e d3 ff ff       	call   140001680 <_ZN4ByteC1Ey>
   140004352:	b9 18 00 00 00       	mov    $0x18,%ecx
   140004357:	e8 ac 1e 00 00       	call   140006208 <_Znwy>
   14000435c:	48 89 c1             	mov    %rax,%rcx
   14000435f:	0f b6 84 24 80 00 00 	movzbl 0x80(%rsp),%eax
   140004366:	00 
   140004367:	4c 89 e2             	mov    %r12,%rdx
   14000436a:	88 41 10             	mov    %al,0x10(%rcx)
   14000436d:	e8 f6 1e 00 00       	call   140006268 <_ZNSt8__detail15_List_node_base7_M_hookEPS0_>
   140004372:	48 8b 44 24 30       	mov    0x30(%rsp),%rax
   140004377:	48 8d 50 01          	lea    0x1(%rax),%rdx
   14000437b:	48 89 54 24 30       	mov    %rdx,0x30(%rsp)
   140004380:	e9 ba fc ff ff       	jmp    14000403f <_ZN13NaturalBinary12long_divsionES_PS_+0x17f>
   140004385:	66 49 0f 6e c6       	movq   %r14,%xmm0
   14000438a:	48 8b 5d 00          	mov    0x0(%rbp),%rbx
   14000438e:	48 c7 44 24 50 00 00 	movq   $0x0,0x50(%rsp)
   140004395:	00 00 
   140004397:	66 0f 6c c0          	punpcklqdq %xmm0,%xmm0
   14000439b:	0f 11 44 24 40       	movups %xmm0,0x40(%rsp)
   1400043a0:	48 39 dd             	cmp    %rbx,%rbp
   1400043a3:	74 2a                	je     1400043cf <_ZN13NaturalBinary12long_divsionES_PS_+0x50f>
   1400043a5:	b9 18 00 00 00       	mov    $0x18,%ecx
   1400043aa:	e8 59 1e 00 00       	call   140006208 <_Znwy>
   1400043af:	48 89 c1             	mov    %rax,%rcx
   1400043b2:	0f b6 43 10          	movzbl 0x10(%rbx),%eax
   1400043b6:	4c 89 f2             	mov    %r14,%rdx
   1400043b9:	88 41 10             	mov    %al,0x10(%rcx)
   1400043bc:	e8 a7 1e 00 00       	call   140006268 <_ZNSt8__detail15_List_node_base7_M_hookEPS0_>
   1400043c1:	48 8b 1b             	mov    (%rbx),%rbx
   1400043c4:	48 83 44 24 50 01    	addq   $0x1,0x50(%rsp)
   1400043ca:	48 39 dd             	cmp    %rbx,%rbp
   1400043cd:	75 d6                	jne    1400043a5 <_ZN13NaturalBinary12long_divsionES_PS_+0x4e5>
   1400043cf:	4d 89 f0             	mov    %r14,%r8
   1400043d2:	48 89 fa             	mov    %rdi,%rdx
   1400043d5:	4c 89 f9             	mov    %r15,%rcx
   1400043d8:	e8 63 da ff ff       	call   140001e40 <_ZN13NaturalBinarymiES_>
   1400043dd:	66 48 0f 6e f6       	movq   %rsi,%xmm6
   1400043e2:	4c 89 fa             	mov    %r15,%rdx
   1400043e5:	48 89 f9             	mov    %rdi,%rcx
   1400043e8:	66 0f 6c f6          	punpcklqdq %xmm6,%xmm6
   1400043ec:	e8 7f d3 ff ff       	call   140001770 <_ZNSt7__cxx114listI4ByteSaIS1_EEaSERKS3_.part.0>
   1400043f1:	48 8b 9c 24 80 00 00 	mov    0x80(%rsp),%rbx
   1400043f8:	00 
   1400043f9:	4c 39 fb             	cmp    %r15,%rbx
   1400043fc:	74 15                	je     140004413 <_ZN13NaturalBinary12long_divsionES_PS_+0x553>
   1400043fe:	48 89 d9             	mov    %rbx,%rcx
   140004401:	48 8b 1b             	mov    (%rbx),%rbx
   140004404:	ba 18 00 00 00       	mov    $0x18,%edx
   140004409:	e8 02 1e 00 00       	call   140006210 <_ZdlPvy>
   14000440e:	4c 39 fb             	cmp    %r15,%rbx
   140004411:	75 eb                	jne    1400043fe <_ZN13NaturalBinary12long_divsionES_PS_+0x53e>
   140004413:	48 8b 5c 24 40       	mov    0x40(%rsp),%rbx
   140004418:	4c 39 f3             	cmp    %r14,%rbx
   14000441b:	74 15                	je     140004432 <_ZN13NaturalBinary12long_divsionES_PS_+0x572>
   14000441d:	48 89 d9             	mov    %rbx,%rcx
   140004420:	48 8b 1b             	mov    (%rbx),%rbx
   140004423:	ba 18 00 00 00       	mov    $0x18,%edx
   140004428:	e8 e3 1d 00 00       	call   140006210 <_ZdlPvy>
   14000442d:	4c 39 f3             	cmp    %r14,%rbx
   140004430:	75 eb                	jne    14000441d <_ZN13NaturalBinary12long_divsionES_PS_+0x55d>
   140004432:	ba 01 00 00 00       	mov    $0x1,%edx
   140004437:	4c 89 f9             	mov    %r15,%rcx
   14000443a:	0f 11 74 24 60       	movups %xmm6,0x60(%rsp)
   14000443f:	48 c7 44 24 70 00 00 	movq   $0x0,0x70(%rsp)
   140004446:	00 00 
   140004448:	e8 33 d2 ff ff       	call   140001680 <_ZN4ByteC1Ey>
   14000444d:	b9 18 00 00 00       	mov    $0x18,%ecx
   140004452:	e8 b1 1d 00 00       	call   140006208 <_Znwy>
   140004457:	48 89 c1             	mov    %rax,%rcx
   14000445a:	0f b6 84 24 80 00 00 	movzbl 0x80(%rsp),%eax
   140004461:	00 
   140004462:	48 89 f2             	mov    %rsi,%rdx
   140004465:	88 41 10             	mov    %al,0x10(%rcx)
   140004468:	e8 fb 1d 00 00       	call   140006268 <_ZNSt8__detail15_List_node_base7_M_hookEPS0_>
   14000446d:	48 8b 94 24 10 01 00 	mov    0x110(%rsp),%rdx
   140004474:	00 
   140004475:	49 89 f0             	mov    %rsi,%r8
   140004478:	4c 89 f9             	mov    %r15,%rcx
   14000447b:	48 83 44 24 70 01    	addq   $0x1,0x70(%rsp)
   140004481:	e8 9a d6 ff ff       	call   140001b20 <_ZN13NaturalBinaryplES_>
   140004486:	48 8b 8c 24 10 01 00 	mov    0x110(%rsp),%rcx
   14000448d:	00 
   14000448e:	4c 89 fa             	mov    %r15,%rdx
   140004491:	e8 da d2 ff ff       	call   140001770 <_ZNSt7__cxx114listI4ByteSaIS1_EEaSERKS3_.part.0>
   140004496:	48 8b 9c 24 80 00 00 	mov    0x80(%rsp),%rbx
   14000449d:	00 
   14000449e:	4c 39 fb             	cmp    %r15,%rbx
   1400044a1:	74 15                	je     1400044b8 <_ZN13NaturalBinary12long_divsionES_PS_+0x5f8>
   1400044a3:	48 89 d9             	mov    %rbx,%rcx
   1400044a6:	48 8b 1b             	mov    (%rbx),%rbx
   1400044a9:	ba 18 00 00 00       	mov    $0x18,%edx
   1400044ae:	e8 5d 1d 00 00       	call   140006210 <_ZdlPvy>
   1400044b3:	4c 39 fb             	cmp    %r15,%rbx
   1400044b6:	75 eb                	jne    1400044a3 <_ZN13NaturalBinary12long_divsionES_PS_+0x5e3>
   1400044b8:	48 8b 5c 24 60       	mov    0x60(%rsp),%rbx
   1400044bd:	48 39 f3             	cmp    %rsi,%rbx
   1400044c0:	0f 84 28 fe ff ff    	je     1400042ee <_ZN13NaturalBinary12long_divsionES_PS_+0x42e>
   1400044c6:	48 89 d9             	mov    %rbx,%rcx
   1400044c9:	48 8b 1b             	mov    (%rbx),%rbx
   1400044cc:	ba 18 00 00 00       	mov    $0x18,%edx
   1400044d1:	e8 3a 1d 00 00       	call   140006210 <_ZdlPvy>
   1400044d6:	48 39 f3             	cmp    %rsi,%rbx
   1400044d9:	75 eb                	jne    1400044c6 <_ZN13NaturalBinary12long_divsionES_PS_+0x606>
   1400044db:	e9 0e fe ff ff       	jmp    1400042ee <_ZN13NaturalBinary12long_divsionES_PS_+0x42e>
   1400044e0:	48 8b 8c 24 80 00 00 	mov    0x80(%rsp),%rcx
   1400044e7:	00 
   1400044e8:	48 89 c3             	mov    %rax,%rbx
   1400044eb:	4c 39 f9             	cmp    %r15,%rcx
   1400044ee:	74 15                	je     140004505 <_ZN13NaturalBinary12long_divsionES_PS_+0x645>
   1400044f0:	48 8b 39             	mov    (%rcx),%rdi
   1400044f3:	ba 18 00 00 00       	mov    $0x18,%edx
   1400044f8:	e8 13 1d 00 00       	call   140006210 <_ZdlPvy>
   1400044fd:	48 89 f9             	mov    %rdi,%rcx
   140004500:	eb e9                	jmp    1400044eb <_ZN13NaturalBinary12long_divsionES_PS_+0x62b>
   140004502:	48 89 c3             	mov    %rax,%rbx
   140004505:	48 8b 4c 24 60       	mov    0x60(%rsp),%rcx
   14000450a:	48 39 f1             	cmp    %rsi,%rcx
   14000450d:	74 75                	je     140004584 <_ZN13NaturalBinary12long_divsionES_PS_+0x6c4>
   14000450f:	48 8b 39             	mov    (%rcx),%rdi
   140004512:	ba 18 00 00 00       	mov    $0x18,%edx
   140004517:	e8 f4 1c 00 00       	call   140006210 <_ZdlPvy>
   14000451c:	48 89 f9             	mov    %rdi,%rcx
   14000451f:	eb e9                	jmp    14000450a <_ZN13NaturalBinary12long_divsionES_PS_+0x64a>
   140004521:	48 8b 4c 24 60       	mov    0x60(%rsp),%rcx
   140004526:	48 89 c3             	mov    %rax,%rbx
   140004529:	48 39 f1             	cmp    %rsi,%rcx
   14000452c:	74 56                	je     140004584 <_ZN13NaturalBinary12long_divsionES_PS_+0x6c4>
   14000452e:	48 8b 39             	mov    (%rcx),%rdi
   140004531:	ba 18 00 00 00       	mov    $0x18,%edx
   140004536:	e8 d5 1c 00 00       	call   140006210 <_ZdlPvy>
   14000453b:	48 89 f9             	mov    %rdi,%rcx
   14000453e:	eb e9                	jmp    140004529 <_ZN13NaturalBinary12long_divsionES_PS_+0x669>
   140004540:	48 8b 8c 24 80 00 00 	mov    0x80(%rsp),%rcx
   140004547:	00 
   140004548:	48 89 c3             	mov    %rax,%rbx
   14000454b:	4c 39 f9             	cmp    %r15,%rcx
   14000454e:	74 15                	je     140004565 <_ZN13NaturalBinary12long_divsionES_PS_+0x6a5>
   140004550:	48 8b 31             	mov    (%rcx),%rsi
   140004553:	ba 18 00 00 00       	mov    $0x18,%edx
   140004558:	e8 b3 1c 00 00       	call   140006210 <_ZdlPvy>
   14000455d:	48 89 f1             	mov    %rsi,%rcx
   140004560:	eb e9                	jmp    14000454b <_ZN13NaturalBinary12long_divsionES_PS_+0x68b>
   140004562:	48 89 c3             	mov    %rax,%rbx
   140004565:	48 8b 4c 24 40       	mov    0x40(%rsp),%rcx
   14000456a:	4c 39 f1             	cmp    %r14,%rcx
   14000456d:	74 15                	je     140004584 <_ZN13NaturalBinary12long_divsionES_PS_+0x6c4>
   14000456f:	48 8b 31             	mov    (%rcx),%rsi
   140004572:	ba 18 00 00 00       	mov    $0x18,%edx
   140004577:	e8 94 1c 00 00       	call   140006210 <_ZdlPvy>
   14000457c:	48 89 f1             	mov    %rsi,%rcx
   14000457f:	eb e9                	jmp    14000456a <_ZN13NaturalBinary12long_divsionES_PS_+0x6aa>
   140004581:	48 89 c3             	mov    %rax,%rbx
   140004584:	48 8b 4c 24 20       	mov    0x20(%rsp),%rcx
   140004589:	4c 39 e1             	cmp    %r12,%rcx
   14000458c:	0f 84 80 00 00 00    	je     140004612 <_ZN13NaturalBinary12long_divsionES_PS_+0x752>
   140004592:	48 8b 31             	mov    (%rcx),%rsi
   140004595:	ba 18 00 00 00       	mov    $0x18,%edx
   14000459a:	e8 71 1c 00 00       	call   140006210 <_ZdlPvy>
   14000459f:	48 89 f1             	mov    %rsi,%rcx
   1400045a2:	eb e5                	jmp    140004589 <_ZN13NaturalBinary12long_divsionES_PS_+0x6c9>
   1400045a4:	48 8b 4c 24 40       	mov    0x40(%rsp),%rcx
   1400045a9:	48 89 c3             	mov    %rax,%rbx
   1400045ac:	4c 39 f1             	cmp    %r14,%rcx
   1400045af:	74 d3                	je     140004584 <_ZN13NaturalBinary12long_divsionES_PS_+0x6c4>
   1400045b1:	48 8b 31             	mov    (%rcx),%rsi
   1400045b4:	ba 18 00 00 00       	mov    $0x18,%edx
   1400045b9:	e8 52 1c 00 00       	call   140006210 <_ZdlPvy>
   1400045be:	48 89 f1             	mov    %rsi,%rcx
   1400045c1:	eb e9                	jmp    1400045ac <_ZN13NaturalBinary12long_divsionES_PS_+0x6ec>
   1400045c3:	48 8b 8c 24 80 00 00 	mov    0x80(%rsp),%rcx
   1400045ca:	00 
   1400045cb:	48 89 c3             	mov    %rax,%rbx
   1400045ce:	4c 39 f9             	cmp    %r15,%rcx
   1400045d1:	0f 84 1a 01 00 00    	je     1400046f1 <_ZN13NaturalBinary12long_divsionES_PS_+0x831>
   1400045d7:	48 8b 39             	mov    (%rcx),%rdi
   1400045da:	ba 18 00 00 00       	mov    $0x18,%edx
   1400045df:	e8 2c 1c 00 00       	call   140006210 <_ZdlPvy>
   1400045e4:	48 89 f9             	mov    %rdi,%rcx
   1400045e7:	eb e5                	jmp    1400045ce <_ZN13NaturalBinary12long_divsionES_PS_+0x70e>
   1400045e9:	48 8b 8c 24 80 00 00 	mov    0x80(%rsp),%rcx
   1400045f0:	00 
   1400045f1:	48 89 c3             	mov    %rax,%rbx
   1400045f4:	4c 39 f9             	cmp    %r15,%rcx
   1400045f7:	0f 84 d5 00 00 00    	je     1400046d2 <_ZN13NaturalBinary12long_divsionES_PS_+0x812>
   1400045fd:	48 8b 39             	mov    (%rcx),%rdi
   140004600:	ba 18 00 00 00       	mov    $0x18,%edx
   140004605:	e8 06 1c 00 00       	call   140006210 <_ZdlPvy>
   14000460a:	48 89 f9             	mov    %rdi,%rcx
   14000460d:	eb e5                	jmp    1400045f4 <_ZN13NaturalBinary12long_divsionES_PS_+0x734>
   14000460f:	48 89 c3             	mov    %rax,%rbx
   140004612:	48 8b 84 24 10 01 00 	mov    0x110(%rsp),%rax
   140004619:	00 
   14000461a:	48 8b 08             	mov    (%rax),%rcx
   14000461d:	48 3b 8c 24 10 01 00 	cmp    0x110(%rsp),%rcx
   140004624:	00 
   140004625:	0f 84 e6 00 00 00    	je     140004711 <_ZN13NaturalBinary12long_divsionES_PS_+0x851>
   14000462b:	48 8b 31             	mov    (%rcx),%rsi
   14000462e:	ba 18 00 00 00       	mov    $0x18,%edx
   140004633:	e8 d8 1b 00 00       	call   140006210 <_ZdlPvy>
   140004638:	48 89 f1             	mov    %rsi,%rcx
   14000463b:	eb e0                	jmp    14000461d <_ZN13NaturalBinary12long_divsionES_PS_+0x75d>
   14000463d:	48 8b 8c 24 80 00 00 	mov    0x80(%rsp),%rcx
   140004644:	00 
   140004645:	48 89 c3             	mov    %rax,%rbx
   140004648:	4c 39 f9             	cmp    %r15,%rcx
   14000464b:	0f 84 33 ff ff ff    	je     140004584 <_ZN13NaturalBinary12long_divsionES_PS_+0x6c4>
   140004651:	48 8b 31             	mov    (%rcx),%rsi
   140004654:	ba 18 00 00 00       	mov    $0x18,%edx
   140004659:	e8 b2 1b 00 00       	call   140006210 <_ZdlPvy>
   14000465e:	48 89 f1             	mov    %rsi,%rcx
   140004661:	eb e5                	jmp    140004648 <_ZN13NaturalBinary12long_divsionES_PS_+0x788>
   140004663:	48 8b 8c 24 80 00 00 	mov    0x80(%rsp),%rcx
   14000466a:	00 
   14000466b:	48 89 c3             	mov    %rax,%rbx
   14000466e:	4c 39 f9             	cmp    %r15,%rcx
   140004671:	0f 84 0d ff ff ff    	je     140004584 <_ZN13NaturalBinary12long_divsionES_PS_+0x6c4>
   140004677:	48 8b 31             	mov    (%rcx),%rsi
   14000467a:	ba 18 00 00 00       	mov    $0x18,%edx
   14000467f:	e8 8c 1b 00 00       	call   140006210 <_ZdlPvy>
   140004684:	48 89 f1             	mov    %rsi,%rcx
   140004687:	eb e5                	jmp    14000466e <_ZN13NaturalBinary12long_divsionES_PS_+0x7ae>
   140004689:	48 89 c3             	mov    %rax,%rbx
   14000468c:	48 8b 4c 24 40       	mov    0x40(%rsp),%rcx
   140004691:	4c 39 f1             	cmp    %r14,%rcx
   140004694:	0f 84 ea fe ff ff    	je     140004584 <_ZN13NaturalBinary12long_divsionES_PS_+0x6c4>
   14000469a:	48 8b 31             	mov    (%rcx),%rsi
   14000469d:	ba 18 00 00 00       	mov    $0x18,%edx
   1400046a2:	e8 69 1b 00 00       	call   140006210 <_ZdlPvy>
   1400046a7:	48 89 f1             	mov    %rsi,%rcx
   1400046aa:	eb e5                	jmp    140004691 <_ZN13NaturalBinary12long_divsionES_PS_+0x7d1>
   1400046ac:	48 8b 4c 24 40       	mov    0x40(%rsp),%rcx
   1400046b1:	48 89 c3             	mov    %rax,%rbx
   1400046b4:	4c 39 f1             	cmp    %r14,%rcx
   1400046b7:	0f 84 c7 fe ff ff    	je     140004584 <_ZN13NaturalBinary12long_divsionES_PS_+0x6c4>
   1400046bd:	48 8b 31             	mov    (%rcx),%rsi
   1400046c0:	ba 18 00 00 00       	mov    $0x18,%edx
   1400046c5:	e8 46 1b 00 00       	call   140006210 <_ZdlPvy>
   1400046ca:	48 89 f1             	mov    %rsi,%rcx
   1400046cd:	eb e5                	jmp    1400046b4 <_ZN13NaturalBinary12long_divsionES_PS_+0x7f4>
   1400046cf:	48 89 c3             	mov    %rax,%rbx
   1400046d2:	48 8b 4c 24 60       	mov    0x60(%rsp),%rcx
   1400046d7:	48 39 f1             	cmp    %rsi,%rcx
   1400046da:	74 b0                	je     14000468c <_ZN13NaturalBinary12long_divsionES_PS_+0x7cc>
   1400046dc:	48 8b 39             	mov    (%rcx),%rdi
   1400046df:	ba 18 00 00 00       	mov    $0x18,%edx
   1400046e4:	e8 27 1b 00 00       	call   140006210 <_ZdlPvy>
   1400046e9:	48 89 f9             	mov    %rdi,%rcx
   1400046ec:	eb e9                	jmp    1400046d7 <_ZN13NaturalBinary12long_divsionES_PS_+0x817>
   1400046ee:	48 89 c3             	mov    %rax,%rbx
   1400046f1:	48 8b 4c 24 60       	mov    0x60(%rsp),%rcx
   1400046f6:	48 39 f1             	cmp    %rsi,%rcx
   1400046f9:	0f 84 85 fe ff ff    	je     140004584 <_ZN13NaturalBinary12long_divsionES_PS_+0x6c4>
   1400046ff:	48 8b 39             	mov    (%rcx),%rdi
   140004702:	ba 18 00 00 00       	mov    $0x18,%edx
   140004707:	e8 04 1b 00 00       	call   140006210 <_ZdlPvy>
   14000470c:	48 89 f9             	mov    %rdi,%rcx
   14000470f:	eb e5                	jmp    1400046f6 <_ZN13NaturalBinary12long_divsionES_PS_+0x836>
   140004711:	48 89 d9             	mov    %rbx,%rcx
   140004714:	e8 47 2c 00 00       	call   140007360 <_Unwind_Resume>
   140004719:	48 8b 4c 24 60       	mov    0x60(%rsp),%rcx
   14000471e:	48 89 c3             	mov    %rax,%rbx
   140004721:	48 39 f1             	cmp    %rsi,%rcx
   140004724:	0f 84 5a fe ff ff    	je     140004584 <_ZN13NaturalBinary12long_divsionES_PS_+0x6c4>
   14000472a:	48 8b 39             	mov    (%rcx),%rdi
   14000472d:	ba 18 00 00 00       	mov    $0x18,%edx
   140004732:	e8 d9 1a 00 00       	call   140006210 <_ZdlPvy>
   140004737:	48 89 f9             	mov    %rdi,%rcx
   14000473a:	eb e5                	jmp    140004721 <_ZN13NaturalBinary12long_divsionES_PS_+0x861>
   14000473c:	48 89 c3             	mov    %rax,%rbx
   14000473f:	48 8b 4c 24 60       	mov    0x60(%rsp),%rcx
   140004744:	48 39 f1             	cmp    %rsi,%rcx
   140004747:	0f 84 37 fe ff ff    	je     140004584 <_ZN13NaturalBinary12long_divsionES_PS_+0x6c4>
   14000474d:	48 8b 39             	mov    (%rcx),%rdi
   140004750:	ba 18 00 00 00       	mov    $0x18,%edx
   140004755:	e8 b6 1a 00 00       	call   140006210 <_ZdlPvy>
   14000475a:	48 89 f9             	mov    %rdi,%rcx
   14000475d:	eb e5                	jmp    140004744 <_ZN13NaturalBinary12long_divsionES_PS_+0x884>
   14000475f:	48 8b 8c 24 80 00 00 	mov    0x80(%rsp),%rcx
   140004766:	00 
   140004767:	48 89 c3             	mov    %rax,%rbx
   14000476a:	4c 39 f9             	cmp    %r15,%rcx
   14000476d:	74 d0                	je     14000473f <_ZN13NaturalBinary12long_divsionES_PS_+0x87f>
   14000476f:	48 8b 39             	mov    (%rcx),%rdi
   140004772:	ba 18 00 00 00       	mov    $0x18,%edx
   140004777:	e8 94 1a 00 00       	call   140006210 <_ZdlPvy>
   14000477c:	48 89 f9             	mov    %rdi,%rcx
   14000477f:	eb e9                	jmp    14000476a <_ZN13NaturalBinary12long_divsionES_PS_+0x8aa>
   140004781:	48 8b 4c 24 60       	mov    0x60(%rsp),%rcx
   140004786:	48 89 c3             	mov    %rax,%rbx
   140004789:	48 39 f1             	cmp    %rsi,%rcx
   14000478c:	0f 84 f2 fd ff ff    	je     140004584 <_ZN13NaturalBinary12long_divsionES_PS_+0x6c4>
   140004792:	48 8b 39             	mov    (%rcx),%rdi
   140004795:	ba 18 00 00 00       	mov    $0x18,%edx
   14000479a:	e8 71 1a 00 00       	call   140006210 <_ZdlPvy>
   14000479f:	48 89 f9             	mov    %rdi,%rcx
   1400047a2:	eb e5                	jmp    140004789 <_ZN13NaturalBinary12long_divsionES_PS_+0x8c9>
   1400047a4:	66 66 2e 0f 1f 84 00 	data16 cs nopw 0x0(%rax,%rax,1)
   1400047ab:	00 00 00 00 
   1400047af:	90                   	nop

00000001400047b0 <_ZN13NaturalBinaryrmES_>:
   1400047b0:	41 55                	push   %r13
   1400047b2:	41 54                	push   %r12
   1400047b4:	55                   	push   %rbp
   1400047b5:	57                   	push   %rdi
   1400047b6:	56                   	push   %rsi
   1400047b7:	53                   	push   %rbx
   1400047b8:	48 83 ec 68          	sub    $0x68,%rsp
   1400047bc:	4c 89 c7             	mov    %r8,%rdi
   1400047bf:	48 89 cd             	mov    %rcx,%rbp
   1400047c2:	48 8d 74 24 20       	lea    0x20(%rsp),%rsi
   1400047c7:	49 89 d4             	mov    %rdx,%r12
   1400047ca:	e8 f1 d0 ff ff       	call   1400018c0 <_ZN13NaturalBinaryC2Ex.constprop.0>
   1400047cf:	48 83 7f 10 01       	cmpq   $0x1,0x10(%rdi)
   1400047d4:	0f 84 be 00 00 00    	je     140004898 <_ZN13NaturalBinaryrmES_+0xe8>
   1400047da:	66 48 0f 6e c6       	movq   %rsi,%xmm0
   1400047df:	48 8b 1f             	mov    (%rdi),%rbx
   1400047e2:	48 c7 44 24 30 00 00 	movq   $0x0,0x30(%rsp)
   1400047e9:	00 00 
   1400047eb:	66 0f 6c c0          	punpcklqdq %xmm0,%xmm0
   1400047ef:	0f 11 44 24 20       	movups %xmm0,0x20(%rsp)
   1400047f4:	48 39 df             	cmp    %rbx,%rdi
   1400047f7:	74 31                	je     14000482a <_ZN13NaturalBinaryrmES_+0x7a>
   1400047f9:	0f 1f 80 00 00 00 00 	nopl   0x0(%rax)
   140004800:	b9 18 00 00 00       	mov    $0x18,%ecx
   140004805:	e8 fe 19 00 00       	call   140006208 <_Znwy>
   14000480a:	48 89 c1             	mov    %rax,%rcx
   14000480d:	0f b6 43 10          	movzbl 0x10(%rbx),%eax
   140004811:	48 89 f2             	mov    %rsi,%rdx
   140004814:	88 41 10             	mov    %al,0x10(%rcx)
   140004817:	e8 4c 1a 00 00       	call   140006268 <_ZNSt8__detail15_List_node_base7_M_hookEPS0_>
   14000481c:	48 8b 1b             	mov    (%rbx),%rbx
   14000481f:	48 83 44 24 30 01    	addq   $0x1,0x30(%rsp)
   140004825:	48 39 df             	cmp    %rbx,%rdi
   140004828:	75 d6                	jne    140004800 <_ZN13NaturalBinaryrmES_+0x50>
   14000482a:	48 8d 7c 24 40       	lea    0x40(%rsp),%rdi
   14000482f:	49 89 e9             	mov    %rbp,%r9
   140004832:	49 89 f0             	mov    %rsi,%r8
   140004835:	4c 89 e2             	mov    %r12,%rdx
   140004838:	48 89 f9             	mov    %rdi,%rcx
   14000483b:	e8 80 f6 ff ff       	call   140003ec0 <_ZN13NaturalBinary12long_divsionES_PS_>
   140004840:	48 8b 5c 24 40       	mov    0x40(%rsp),%rbx
   140004845:	48 39 fb             	cmp    %rdi,%rbx
   140004848:	74 1b                	je     140004865 <_ZN13NaturalBinaryrmES_+0xb5>
   14000484a:	66 0f 1f 44 00 00    	nopw   0x0(%rax,%rax,1)
   140004850:	48 89 d9             	mov    %rbx,%rcx
   140004853:	48 8b 1b             	mov    (%rbx),%rbx
   140004856:	ba 18 00 00 00       	mov    $0x18,%edx
   14000485b:	e8 b0 19 00 00       	call   140006210 <_ZdlPvy>
   140004860:	48 39 fb             	cmp    %rdi,%rbx
   140004863:	75 eb                	jne    140004850 <_ZN13NaturalBinaryrmES_+0xa0>
   140004865:	48 8b 5c 24 20       	mov    0x20(%rsp),%rbx
   14000486a:	48 39 f3             	cmp    %rsi,%rbx
   14000486d:	74 16                	je     140004885 <_ZN13NaturalBinaryrmES_+0xd5>
   14000486f:	90                   	nop
   140004870:	48 89 d9             	mov    %rbx,%rcx
   140004873:	48 8b 1b             	mov    (%rbx),%rbx
   140004876:	ba 18 00 00 00       	mov    $0x18,%edx
   14000487b:	e8 90 19 00 00       	call   140006210 <_ZdlPvy>
   140004880:	48 39 f3             	cmp    %rsi,%rbx
   140004883:	75 eb                	jne    140004870 <_ZN13NaturalBinaryrmES_+0xc0>
   140004885:	48 89 e8             	mov    %rbp,%rax
   140004888:	48 83 c4 68          	add    $0x68,%rsp
   14000488c:	5b                   	pop    %rbx
   14000488d:	5e                   	pop    %rsi
   14000488e:	5f                   	pop    %rdi
   14000488f:	5d                   	pop    %rbp
   140004890:	41 5c                	pop    %r12
   140004892:	41 5d                	pop    %r13
   140004894:	c3                   	ret
   140004895:	0f 1f 00             	nopl   (%rax)
   140004898:	66 48 0f 6e c6       	movq   %rsi,%xmm0
   14000489d:	49 8b 1c 24          	mov    (%r12),%rbx
   1400048a1:	4c 8b 2f             	mov    (%rdi),%r13
   1400048a4:	48 c7 44 24 30 00 00 	movq   $0x0,0x30(%rsp)
   1400048ab:	00 00 
   1400048ad:	66 0f 6c c0          	punpcklqdq %xmm0,%xmm0
   1400048b1:	0f 11 44 24 20       	movups %xmm0,0x20(%rsp)
   1400048b6:	49 39 dc             	cmp    %rbx,%r12
   1400048b9:	74 2f                	je     1400048ea <_ZN13NaturalBinaryrmES_+0x13a>
   1400048bb:	0f 1f 44 00 00       	nopl   0x0(%rax,%rax,1)
   1400048c0:	b9 18 00 00 00       	mov    $0x18,%ecx
   1400048c5:	e8 3e 19 00 00       	call   140006208 <_Znwy>
   1400048ca:	48 89 c1             	mov    %rax,%rcx
   1400048cd:	0f b6 43 10          	movzbl 0x10(%rbx),%eax
   1400048d1:	48 89 f2             	mov    %rsi,%rdx
   1400048d4:	88 41 10             	mov    %al,0x10(%rcx)
   1400048d7:	e8 8c 19 00 00       	call   140006268 <_ZNSt8__detail15_List_node_base7_M_hookEPS0_>
   1400048dc:	48 8b 1b             	mov    (%rbx),%rbx
   1400048df:	48 83 44 24 30 01    	addq   $0x1,0x30(%rsp)
   1400048e5:	49 39 dc             	cmp    %rbx,%r12
   1400048e8:	75 d6                	jne    1400048c0 <_ZN13NaturalBinaryrmES_+0x110>
   1400048ea:	48 8d 7c 24 40       	lea    0x40(%rsp),%rdi
   1400048ef:	45 0f b6 45 10       	movzbl 0x10(%r13),%r8d
   1400048f4:	49 89 e9             	mov    %rbp,%r9
   1400048f7:	48 89 f2             	mov    %rsi,%rdx
   1400048fa:	48 89 f9             	mov    %rdi,%rcx
   1400048fd:	e8 5e d8 ff ff       	call   140002160 <_ZN13NaturalBinary14divide_by_byteES_4BytePS_>
   140004902:	48 8b 5c 24 40       	mov    0x40(%rsp),%rbx
   140004907:	48 39 fb             	cmp    %rdi,%rbx
   14000490a:	74 19                	je     140004925 <_ZN13NaturalBinaryrmES_+0x175>
   14000490c:	0f 1f 40 00          	nopl   0x0(%rax)
   140004910:	48 89 d9             	mov    %rbx,%rcx
   140004913:	48 8b 1b             	mov    (%rbx),%rbx
   140004916:	ba 18 00 00 00       	mov    $0x18,%edx
   14000491b:	e8 f0 18 00 00       	call   140006210 <_ZdlPvy>
   140004920:	48 39 fb             	cmp    %rdi,%rbx
   140004923:	75 eb                	jne    140004910 <_ZN13NaturalBinaryrmES_+0x160>
   140004925:	48 8b 5c 24 20       	mov    0x20(%rsp),%rbx
   14000492a:	48 39 f3             	cmp    %rsi,%rbx
   14000492d:	0f 84 52 ff ff ff    	je     140004885 <_ZN13NaturalBinaryrmES_+0xd5>
   140004933:	0f 1f 44 00 00       	nopl   0x0(%rax,%rax,1)
   140004938:	48 89 d9             	mov    %rbx,%rcx
   14000493b:	48 8b 1b             	mov    (%rbx),%rbx
   14000493e:	ba 18 00 00 00       	mov    $0x18,%edx
   140004943:	e8 c8 18 00 00       	call   140006210 <_ZdlPvy>
   140004948:	48 39 f3             	cmp    %rsi,%rbx
   14000494b:	75 eb                	jne    140004938 <_ZN13NaturalBinaryrmES_+0x188>
   14000494d:	48 89 e8             	mov    %rbp,%rax
   140004950:	48 83 c4 68          	add    $0x68,%rsp
   140004954:	5b                   	pop    %rbx
   140004955:	5e                   	pop    %rsi
   140004956:	5f                   	pop    %rdi
   140004957:	5d                   	pop    %rbp
   140004958:	41 5c                	pop    %r12
   14000495a:	41 5d                	pop    %r13
   14000495c:	c3                   	ret
   14000495d:	48 8b 4c 24 20       	mov    0x20(%rsp),%rcx
   140004962:	48 89 c3             	mov    %rax,%rbx
   140004965:	48 39 f1             	cmp    %rsi,%rcx
   140004968:	74 3e                	je     1400049a8 <_ZN13NaturalBinaryrmES_+0x1f8>
   14000496a:	48 8b 39             	mov    (%rcx),%rdi
   14000496d:	ba 18 00 00 00       	mov    $0x18,%edx
   140004972:	e8 99 18 00 00       	call   140006210 <_ZdlPvy>
   140004977:	48 89 f9             	mov    %rdi,%rcx
   14000497a:	eb e9                	jmp    140004965 <_ZN13NaturalBinaryrmES_+0x1b5>
   14000497c:	48 8b 4c 24 20       	mov    0x20(%rsp),%rcx
   140004981:	48 89 c3             	mov    %rax,%rbx
   140004984:	48 39 f1             	cmp    %rsi,%rcx
   140004987:	74 1f                	je     1400049a8 <_ZN13NaturalBinaryrmES_+0x1f8>
   140004989:	48 8b 39             	mov    (%rcx),%rdi
   14000498c:	ba 18 00 00 00       	mov    $0x18,%edx
   140004991:	e8 7a 18 00 00       	call   140006210 <_ZdlPvy>
   140004996:	48 89 f9             	mov    %rdi,%rcx
   140004999:	eb e9                	jmp    140004984 <_ZN13NaturalBinaryrmES_+0x1d4>
   14000499b:	48 8b 4c 24 20       	mov    0x20(%rsp),%rcx
   1400049a0:	48 89 c3             	mov    %rax,%rbx
   1400049a3:	48 39 f1             	cmp    %rsi,%rcx
   1400049a6:	75 42                	jne    1400049ea <_ZN13NaturalBinaryrmES_+0x23a>
   1400049a8:	48 8b 4d 00          	mov    0x0(%rbp),%rcx
   1400049ac:	48 39 e9             	cmp    %rbp,%rcx
   1400049af:	74 31                	je     1400049e2 <_ZN13NaturalBinaryrmES_+0x232>
   1400049b1:	48 8b 31             	mov    (%rcx),%rsi
   1400049b4:	ba 18 00 00 00       	mov    $0x18,%edx
   1400049b9:	e8 52 18 00 00       	call   140006210 <_ZdlPvy>
   1400049be:	48 89 f1             	mov    %rsi,%rcx
   1400049c1:	eb e9                	jmp    1400049ac <_ZN13NaturalBinaryrmES_+0x1fc>
   1400049c3:	48 8b 4c 24 20       	mov    0x20(%rsp),%rcx
   1400049c8:	48 89 c3             	mov    %rax,%rbx
   1400049cb:	48 39 f1             	cmp    %rsi,%rcx
   1400049ce:	74 d8                	je     1400049a8 <_ZN13NaturalBinaryrmES_+0x1f8>
   1400049d0:	48 8b 39             	mov    (%rcx),%rdi
   1400049d3:	ba 18 00 00 00       	mov    $0x18,%edx
   1400049d8:	e8 33 18 00 00       	call   140006210 <_ZdlPvy>
   1400049dd:	48 89 f9             	mov    %rdi,%rcx
   1400049e0:	eb e9                	jmp    1400049cb <_ZN13NaturalBinaryrmES_+0x21b>
   1400049e2:	48 89 d9             	mov    %rbx,%rcx
   1400049e5:	e8 76 29 00 00       	call   140007360 <_Unwind_Resume>
   1400049ea:	48 8b 39             	mov    (%rcx),%rdi
   1400049ed:	ba 18 00 00 00       	mov    $0x18,%edx
   1400049f2:	e8 19 18 00 00       	call   140006210 <_ZdlPvy>
   1400049f7:	48 89 f9             	mov    %rdi,%rcx
   1400049fa:	eb a7                	jmp    1400049a3 <_ZN13NaturalBinaryrmES_+0x1f3>
   1400049fc:	0f 1f 40 00          	nopl   0x0(%rax)

0000000140004a00 <_ZN13NaturalBinarydvES_>:
   140004a00:	41 55                	push   %r13
   140004a02:	41 54                	push   %r12
   140004a04:	55                   	push   %rbp
   140004a05:	57                   	push   %rdi
   140004a06:	56                   	push   %rsi
   140004a07:	53                   	push   %rbx
   140004a08:	48 83 ec 68          	sub    $0x68,%rsp
   140004a0c:	49 83 78 10 01       	cmpq   $0x1,0x10(%r8)
   140004a11:	48 89 cd             	mov    %rcx,%rbp
   140004a14:	49 89 d5             	mov    %rdx,%r13
   140004a17:	4d 89 c4             	mov    %r8,%r12
   140004a1a:	0f 84 c8 00 00 00    	je     140004ae8 <_ZN13NaturalBinarydvES_+0xe8>
   140004a20:	48 8d 7c 24 20       	lea    0x20(%rsp),%rdi
   140004a25:	48 8d 74 24 40       	lea    0x40(%rsp),%rsi
   140004a2a:	48 89 f9             	mov    %rdi,%rcx
   140004a2d:	e8 8e ce ff ff       	call   1400018c0 <_ZN13NaturalBinaryC2Ex.constprop.0>
   140004a32:	66 48 0f 6e c6       	movq   %rsi,%xmm0
   140004a37:	49 8b 1c 24          	mov    (%r12),%rbx
   140004a3b:	48 c7 44 24 50 00 00 	movq   $0x0,0x50(%rsp)
   140004a42:	00 00 
   140004a44:	66 0f 6c c0          	punpcklqdq %xmm0,%xmm0
   140004a48:	0f 11 44 24 40       	movups %xmm0,0x40(%rsp)
   140004a4d:	49 39 dc             	cmp    %rbx,%r12
   140004a50:	74 30                	je     140004a82 <_ZN13NaturalBinarydvES_+0x82>
   140004a52:	66 0f 1f 44 00 00    	nopw   0x0(%rax,%rax,1)
   140004a58:	b9 18 00 00 00       	mov    $0x18,%ecx
   140004a5d:	e8 a6 17 00 00       	call   140006208 <_Znwy>
   140004a62:	48 89 c1             	mov    %rax,%rcx
   140004a65:	0f b6 43 10          	movzbl 0x10(%rbx),%eax
   140004a69:	48 89 f2             	mov    %rsi,%rdx
   140004a6c:	88 41 10             	mov    %al,0x10(%rcx)
   140004a6f:	e8 f4 17 00 00       	call   140006268 <_ZNSt8__detail15_List_node_base7_M_hookEPS0_>
   140004a74:	48 8b 1b             	mov    (%rbx),%rbx
   140004a77:	48 83 44 24 50 01    	addq   $0x1,0x50(%rsp)
   140004a7d:	49 39 dc             	cmp    %rbx,%r12
   140004a80:	75 d6                	jne    140004a58 <_ZN13NaturalBinarydvES_+0x58>
   140004a82:	49 89 f9             	mov    %rdi,%r9
   140004a85:	49 89 f0             	mov    %rsi,%r8
   140004a88:	4c 89 ea             	mov    %r13,%rdx
   140004a8b:	48 89 e9             	mov    %rbp,%rcx
   140004a8e:	e8 2d f4 ff ff       	call   140003ec0 <_ZN13NaturalBinary12long_divsionES_PS_>
   140004a93:	48 8b 5c 24 40       	mov    0x40(%rsp),%rbx
   140004a98:	48 39 f3             	cmp    %rsi,%rbx
   140004a9b:	74 18                	je     140004ab5 <_ZN13NaturalBinarydvES_+0xb5>
   140004a9d:	0f 1f 00             	nopl   (%rax)
   140004aa0:	48 89 d9             	mov    %rbx,%rcx
   140004aa3:	48 8b 1b             	mov    (%rbx),%rbx
   140004aa6:	ba 18 00 00 00       	mov    $0x18,%edx
   140004aab:	e8 60 17 00 00       	call   140006210 <_ZdlPvy>
   140004ab0:	48 39 f3             	cmp    %rsi,%rbx
   140004ab3:	75 eb                	jne    140004aa0 <_ZN13NaturalBinarydvES_+0xa0>
   140004ab5:	48 8b 5c 24 20       	mov    0x20(%rsp),%rbx
   140004aba:	48 39 fb             	cmp    %rdi,%rbx
   140004abd:	74 16                	je     140004ad5 <_ZN13NaturalBinarydvES_+0xd5>
   140004abf:	90                   	nop
   140004ac0:	48 89 d9             	mov    %rbx,%rcx
   140004ac3:	48 8b 1b             	mov    (%rbx),%rbx
   140004ac6:	ba 18 00 00 00       	mov    $0x18,%edx
   140004acb:	e8 40 17 00 00       	call   140006210 <_ZdlPvy>
   140004ad0:	48 39 fb             	cmp    %rdi,%rbx
   140004ad3:	75 eb                	jne    140004ac0 <_ZN13NaturalBinarydvES_+0xc0>
   140004ad5:	48 89 e8             	mov    %rbp,%rax
   140004ad8:	48 83 c4 68          	add    $0x68,%rsp
   140004adc:	5b                   	pop    %rbx
   140004add:	5e                   	pop    %rsi
   140004ade:	5f                   	pop    %rdi
   140004adf:	5d                   	pop    %rbp
   140004ae0:	41 5c                	pop    %r12
   140004ae2:	41 5d                	pop    %r13
   140004ae4:	c3                   	ret
   140004ae5:	0f 1f 00             	nopl   (%rax)
   140004ae8:	48 8d 74 24 40       	lea    0x40(%rsp),%rsi
   140004aed:	48 8b 1a             	mov    (%rdx),%rbx
   140004af0:	49 8b 38             	mov    (%r8),%rdi
   140004af3:	48 c7 44 24 50 00 00 	movq   $0x0,0x50(%rsp)
   140004afa:	00 00 
   140004afc:	66 48 0f 6e c6       	movq   %rsi,%xmm0
   140004b01:	66 0f 6c c0          	punpcklqdq %xmm0,%xmm0
   140004b05:	0f 11 44 24 40       	movups %xmm0,0x40(%rsp)
   140004b0a:	48 39 da             	cmp    %rbx,%rdx
   140004b0d:	74 2b                	je     140004b3a <_ZN13NaturalBinarydvES_+0x13a>
   140004b0f:	90                   	nop
   140004b10:	b9 18 00 00 00       	mov    $0x18,%ecx
   140004b15:	e8 ee 16 00 00       	call   140006208 <_Znwy>
   140004b1a:	48 89 c1             	mov    %rax,%rcx
   140004b1d:	0f b6 43 10          	movzbl 0x10(%rbx),%eax
   140004b21:	48 89 f2             	mov    %rsi,%rdx
   140004b24:	88 41 10             	mov    %al,0x10(%rcx)
   140004b27:	e8 3c 17 00 00       	call   140006268 <_ZNSt8__detail15_List_node_base7_M_hookEPS0_>
   140004b2c:	48 8b 1b             	mov    (%rbx),%rbx
   140004b2f:	48 83 44 24 50 01    	addq   $0x1,0x50(%rsp)
   140004b35:	49 39 dd             	cmp    %rbx,%r13
   140004b38:	75 d6                	jne    140004b10 <_ZN13NaturalBinarydvES_+0x110>
   140004b3a:	44 0f b6 47 10       	movzbl 0x10(%rdi),%r8d
   140004b3f:	45 31 c9             	xor    %r9d,%r9d
   140004b42:	48 89 f2             	mov    %rsi,%rdx
   140004b45:	48 89 e9             	mov    %rbp,%rcx
   140004b48:	e8 13 d6 ff ff       	call   140002160 <_ZN13NaturalBinary14divide_by_byteES_4BytePS_>
   140004b4d:	48 8b 5c 24 40       	mov    0x40(%rsp),%rbx
   140004b52:	48 39 f3             	cmp    %rsi,%rbx
   140004b55:	0f 84 7a ff ff ff    	je     140004ad5 <_ZN13NaturalBinarydvES_+0xd5>
   140004b5b:	0f 1f 44 00 00       	nopl   0x0(%rax,%rax,1)
   140004b60:	48 89 d9             	mov    %rbx,%rcx
   140004b63:	48 8b 1b             	mov    (%rbx),%rbx
   140004b66:	ba 18 00 00 00       	mov    $0x18,%edx
   140004b6b:	e8 a0 16 00 00       	call   140006210 <_ZdlPvy>
   140004b70:	48 39 f3             	cmp    %rsi,%rbx
   140004b73:	75 eb                	jne    140004b60 <_ZN13NaturalBinarydvES_+0x160>
   140004b75:	48 89 e8             	mov    %rbp,%rax
   140004b78:	48 83 c4 68          	add    $0x68,%rsp
   140004b7c:	5b                   	pop    %rbx
   140004b7d:	5e                   	pop    %rsi
   140004b7e:	5f                   	pop    %rdi
